(dp1
S'mag_data'
p2
(lp3
(F-8.8359375
F-25.917187500000001
F2.1515624999999998
tp4
a(F-8.8359375
F-26.599218749999999
F0.71718749999999998
tp5
a(F-10.53515625
F-25.576171875
F1.79296875
tp6
a(F-9.85546875
F-24.894140624999999
F2.5101562500000001
tp7
a(F-10.1953125
F-23.87109375
F0.71718749999999998
tp8
a(F-10.1953125
F-25.235156249999999
F2.1515624999999998
tp9
a(F-11.21484375
F-24.212109375000001
F1.0757812499999999
tp10
a(F-9.515625
F-24.553124999999998
F2.8687499999999999
tp11
a(F-9.515625
F-25.235156249999999
F1.434375
tp12
a(F-9.17578125
F-27.622265625000001
F1.79296875
tp13
a(F-8.8359375
F-25.235156249999999
F-0.71718749999999998
tp14
a(F-9.17578125
F-24.212109375000001
F0.35859374999999999
tp15
a(F-9.85546875
F-24.212109375000001
F2.5101562500000001
tp16
a(F-9.17578125
F-24.894140624999999
F1.0757812499999999
tp17
a(F-10.53515625
F-24.212109375000001
F2.5101562500000001
tp18
a(F-9.85546875
F-24.894140624999999
F1.79296875
tp19
a(F-9.85546875
F-24.212109375000001
F2.5101562500000001
tp20
a(F-9.515625
F-25.917187500000001
F2.1515624999999998
tp21
a(F-8.15625
F-24.553124999999998
F1.434375
tp22
a(F-9.17578125
F-24.894140624999999
F1.0757812499999999
tp23
a(F-10.1953125
F-25.917187500000001
F1.434375
tp24
a(F-9.85546875
F-24.894140624999999
F2.5101562500000001
tp25
a(F-6.796875
F-23.189062499999999
F2.1515624999999998
tp26
a(F-11.89453125
F-25.576171875
F2.5101562500000001
tp27
a(F-10.875
F-25.917187500000001
F3.5859375
tp28
a(F-9.85546875
F-25.576171875
F2.5101562500000001
tp29
a(F-8.15625
F-23.87109375
F2.1515624999999998
tp30
a(F-10.53515625
F-24.894140624999999
F1.79296875
tp31
a(F-10.875
F-26.599218749999999
F2.1515624999999998
tp32
a(F-10.1953125
F-23.189062499999999
F1.434375
tp33
a(F-9.85546875
F-25.576171875
F-0.35859374999999999
tp34
a(F-10.1953125
F-25.235156249999999
F2.8687499999999999
tp35
a(F-7.81640625
F-25.576171875
F1.79296875
tp36
a(F-10.53515625
F-24.894140624999999
F0.35859374999999999
tp37
a(F-9.85546875
F-24.894140624999999
F0.35859374999999999
tp38
a(F-9.85546875
F-24.894140624999999
F1.0757812499999999
tp39
a(F-8.8359375
F-25.917187500000001
F0
tp40
a(F-7.81640625
F-25.576171875
F2.5101562500000001
tp41
a(F-10.875
F-25.917187500000001
F2.1515624999999998
tp42
a(F-9.85546875
F-25.576171875
F1.0757812499999999
tp43
a(F-11.21484375
F-24.894140624999999
F1.79296875
tp44
a(F-9.515625
F-24.553124999999998
F1.434375
tp45
a(F-9.515625
F-25.235156249999999
F1.434375
tp46
a(F-9.85546875
F-25.576171875
F1.0757812499999999
tp47
a(F-9.17578125
F-24.894140624999999
F1.79296875
tp48
a(F-8.8359375
F-23.87109375
F0
tp49
a(F-10.1953125
F-25.917187500000001
F2.1515624999999998
tp50
a(F-11.21484375
F-23.530078124999999
F1.0757812499999999
tp51
a(F-9.17578125
F-24.212109375000001
F1.79296875
tp52
a(F-9.515625
F-25.235156249999999
F2.1515624999999998
tp53
a(F-9.85546875
F-24.894140624999999
F3.2273437499999997
tp54
a(F-10.53515625
F-26.258203124999998
F2.5101562500000001
tp55
a(F-8.8359375
F-24.553124999999998
F0.71718749999999998
tp56
a(F-11.5546875
F-25.235156249999999
F0.71718749999999998
tp57
a(F-9.515625
F-25.235156249999999
F2.8687499999999999
tp58
a(F-10.53515625
F-24.212109375000001
F3.2273437499999997
tp59
a(F-10.53515625
F-24.894140624999999
F2.5101562500000001
tp60
a(F-8.49609375
F-25.576171875
F2.5101562500000001
tp61
a(F-8.8359375
F-23.87109375
F2.8687499999999999
tp62
a(F-10.53515625
F-24.894140624999999
F1.0757812499999999
tp63
a(F-9.17578125
F-25.576171875
F0.35859374999999999
tp64
a(F-9.85546875
F-26.258203124999998
F1.0757812499999999
tp65
a(F-8.8359375
F-25.917187500000001
F2.8687499999999999
tp66
a(F-10.53515625
F-26.258203124999998
F0.35859374999999999
tp67
a(F-10.53515625
F-24.894140624999999
F1.0757812499999999
tp68
a(F-8.8359375
F-24.553124999999998
F1.434375
tp69
a(F-9.85546875
F-25.576171875
F1.79296875
tp70
a(F-9.515625
F-23.189062499999999
F1.434375
tp71
a(F-9.515625
F-25.235156249999999
F2.1515624999999998
tp72
a(F-11.21484375
F-24.212109375000001
F0.35859374999999999
tp73
a(F-9.85546875
F-26.940234374999999
F0.35859374999999999
tp74
a(F-10.1953125
F-25.235156249999999
F3.5859375
tp75
a(F-8.49609375
F-26.258203124999998
F1.0757812499999999
tp76
a(F-9.17578125
F-25.576171875
F3.2273437499999997
tp77
a(F-10.1953125
F-25.235156249999999
F2.8687499999999999
tp78
a(F-10.1953125
F-24.553124999999998
F1.434375
tp79
a(F-10.875
F-25.917187500000001
F2.8687499999999999
tp80
a(F-8.8359375
F-25.917187500000001
F2.1515624999999998
tp81
a(F-9.17578125
F-24.894140624999999
F1.0757812499999999
tp82
a(F-10.1953125
F-23.189062499999999
F2.8687499999999999
tp83
a(F-9.85546875
F-25.576171875
F1.0757812499999999
tp84
a(F-8.8359375
F-24.553124999999998
F0
tp85
a(F-10.875
F-27.28125
F0.71718749999999998
tp86
a(F-9.17578125
F-24.894140624999999
F2.5101562500000001
tp87
a(F-9.515625
F-25.235156249999999
F0.71718749999999998
tp88
a(F-9.515625
F-24.553124999999998
F1.434375
tp89
a(F-10.875
F-26.599218749999999
F2.1515624999999998
tp90
a(F-10.53515625
F-23.530078124999999
F0.35859374999999999
tp91
a(F-9.515625
F-23.87109375
F0.71718749999999998
tp92
a(F-8.8359375
F-23.189062499999999
F1.434375
tp93
a(F-8.8359375
F-26.599218749999999
F1.434375
tp94
a(F-9.85546875
F-26.258203124999998
F1.0757812499999999
tp95
a(F-12.234375
F-23.87109375
F1.434375
tp96
a(F-9.85546875
F-22.848046874999998
F2.5101562500000001
tp97
a(F-9.515625
F-25.235156249999999
F0.71718749999999998
tp98
a(F-10.53515625
F-25.576171875
F1.0757812499999999
tp99
a(F-8.8359375
F-23.87109375
F2.1515624999999998
tp100
a(F-8.8359375
F-25.917187500000001
F1.434375
tp101
a(F-9.515625
F-25.235156249999999
F0.71718749999999998
tp102
a(F-8.15625
F-25.235156249999999
F0.71718749999999998
tp103
a(F-10.53515625
F-25.576171875
F0.35859374999999999
tp104
a(F-9.17578125
F-24.212109375000001
F3.2273437499999997
tp105
a(F-9.17578125
F-24.212109375000001
F4.6617187499999995
tp106
a(F-10.1953125
F-26.599218749999999
F2.1515624999999998
tp107
a(F-9.17578125
F-24.894140624999999
F2.5101562500000001
tp108
a(F-9.515625
F-24.553124999999998
F2.1515624999999998
tp109
a(F-10.875
F-25.235156249999999
F1.434375
tp110
a(F-9.515625
F-25.917187500000001
F1.434375
tp111
a(F-9.515625
F-23.87109375
F1.434375
tp112
a(F-7.81640625
F-24.894140624999999
F2.5101562500000001
tp113
a(F-8.8359375
F-25.917187500000001
F0
tp114
a(F-10.1953125
F-25.235156249999999
F2.1515624999999998
tp115
a(F-10.53515625
F-25.576171875
F1.79296875
tp116
a(F-7.4765625
F-25.235156249999999
F0
tp117
a(F-9.85546875
F-24.212109375000001
F1.0757812499999999
tp118
a(F-10.1953125
F-25.235156249999999
F1.434375
tp119
a(F-9.85546875
F-26.258203124999998
F-0.35859374999999999
tp120
a(F-10.1953125
F-25.235156249999999
F2.1515624999999998
tp121
a(F-9.85546875
F-26.258203124999998
F3.2273437499999997
tp122
a(F-8.8359375
F-24.553124999999998
F2.1515624999999998
tp123
a(F-9.85546875
F-26.258203124999998
F0.35859374999999999
tp124
a(F-9.515625
F-24.553124999999998
F1.434375
tp125
a(F-9.17578125
F-24.212109375000001
F1.79296875
tp126
a(F-9.515625
F-26.599218749999999
F2.8687499999999999
tp127
a(F-8.15625
F-25.235156249999999
F2.8687499999999999
tp128
a(F-9.85546875
F-25.576171875
F1.79296875
tp129
a(F-9.515625
F-24.553124999999998
F0.71718749999999998
tp130
a(F-9.515625
F-24.553124999999998
F2.1515624999999998
tp131
a(F-9.85546875
F-24.894140624999999
F3.2273437499999997
tp132
a(F-9.17578125
F-24.212109375000001
F1.0757812499999999
tp133
a(F-9.17578125
F-25.576171875
F2.5101562500000001
tp134
a(F-10.53515625
F-25.576171875
F-0.35859374999999999
tp135
a(F-9.515625
F-24.553124999999998
F1.434375
tp136
a(F-9.85546875
F-25.576171875
F1.0757812499999999
tp137
a(F-9.515625
F-25.917187500000001
F2.1515624999999998
tp138
a(F-8.8359375
F-25.917187500000001
F1.434375
tp139
a(F-10.1953125
F-25.235156249999999
F0.71718749999999998
tp140
a(F-11.21484375
F-24.894140624999999
F1.79296875
tp141
a(F-9.515625
F-25.235156249999999
F0.71718749999999998
tp142
a(F-8.49609375
F-24.212109375000001
F1.0757812499999999
tp143
a(F-8.8359375
F-25.235156249999999
F0
tp144
a(F-9.515625
F-24.553124999999998
F2.8687499999999999
tp145
a(F-10.53515625
F-25.576171875
F1.79296875
tp146
a(F-9.515625
F-25.917187500000001
F0
tp147
a(F-10.875
F-24.553124999999998
F1.434375
tp148
a(F-10.1953125
F-25.235156249999999
F1.434375
tp149
a(F-9.85546875
F-24.894140624999999
F3.2273437499999997
tp150
a(F-10.53515625
F-24.894140624999999
F3.2273437499999997
tp151
a(F-10.875
F-23.189062499999999
F1.434375
tp152
a(F-9.85546875
F-25.576171875
F1.0757812499999999
tp153
a(F-10.53515625
F-24.894140624999999
F2.5101562500000001
tp154
a(F-9.17578125
F-26.258203124999998
F2.5101562500000001
tp155
a(F-9.17578125
F-24.212109375000001
F0.35859374999999999
tp156
a(F-10.875
F-24.553124999999998
F2.8687499999999999
tp157
a(F-9.515625
F-23.87109375
F3.5859375
tp158
a(F-10.1953125
F-25.917187500000001
F2.1515624999999998
tp159
a(F-9.85546875
F-24.212109375000001
F2.5101562500000001
tp160
a(F-9.17578125
F-23.530078124999999
F1.0757812499999999
tp161
a(F-10.1953125
F-25.235156249999999
F1.434375
tp162
a(F-9.515625
F-26.599218749999999
F1.434375
tp163
a(F-9.515625
F-24.553124999999998
F0.71718749999999998
tp164
a(F-9.515625
F-25.235156249999999
F1.434375
tp165
a(F-8.15625
F-25.917187500000001
F2.1515624999999998
tp166
a(F-7.4765625
F-23.189062499999999
F2.1515624999999998
tp167
a(F-10.875
F-25.235156249999999
F2.1515624999999998
tp168
a(F-9.85546875
F-24.894140624999999
F1.79296875
tp169
a(F-10.1953125
F-24.553124999999998
F2.8687499999999999
tp170
a(F-8.8359375
F-23.189062499999999
F0.71718749999999998
tp171
a(F-10.1953125
F-25.235156249999999
F2.1515624999999998
tp172
a(F-8.8359375
F-25.235156249999999
F2.1515624999999998
tp173
a(F-9.17578125
F-26.258203124999998
F2.5101562500000001
tp174
a(F-11.21484375
F-25.576171875
F1.0757812499999999
tp175
a(F-8.49609375
F-24.212109375000001
F1.79296875
tp176
a(F-11.21484375
F-24.894140624999999
F1.79296875
tp177
a(F-10.1953125
F-24.553124999999998
F0.71718749999999998
tp178
a(F-7.4765625
F-24.553124999999998
F2.1515624999999998
tp179
a(F-10.53515625
F-24.212109375000001
F2.5101562500000001
tp180
a(F-9.515625
F-26.599218749999999
F2.8687499999999999
tp181
a(F-8.8359375
F-24.553124999999998
F2.8687499999999999
tp182
a(F-8.15625
F-25.917187500000001
F2.1515624999999998
tp183
a(F-9.515625
F-24.553124999999998
F2.1515624999999998
tp184
a(F-10.1953125
F-25.917187500000001
F2.1515624999999998
tp185
a(F-10.1953125
F-25.235156249999999
F0.71718749999999998
tp186
a(F-9.515625
F-26.599218749999999
F0.71718749999999998
tp187
a(F-7.13671875
F-26.258203124999998
F1.0757812499999999
tp188
a(F-8.49609375
F-23.530078124999999
F1.79296875
tp189
a(F-10.1953125
F-24.553124999999998
F3.5859375
tp190
a(F-8.49609375
F-25.576171875
F1.79296875
tp191
a(F-8.8359375
F-27.28125
F1.434375
tp192
a(F-9.515625
F-25.235156249999999
F2.1515624999999998
tp193
a(F-9.515625
F-27.28125
F1.434375
tp194
a(F-10.1953125
F-25.917187500000001
F0.71718749999999998
tp195
a(F-9.85546875
F-24.212109375000001
F4.6617187499999995
tp196
a(F-10.53515625
F-24.212109375000001
F3.2273437499999997
tp197
a(F-8.8359375
F-24.553124999999998
F5.0203125000000002
tp198
a(F-10.53515625
F-24.894140624999999
F3.2273437499999997
tp199
a(F-8.8359375
F-23.87109375
F3.5859375
tp200
a(F-9.85546875
F-24.212109375000001
F2.5101562500000001
tp201
a(F-10.53515625
F-24.894140624999999
F1.79296875
tp202
a(F-10.1953125
F-25.235156249999999
F2.1515624999999998
tp203
a(F-10.1953125
F-23.87109375
F2.8687499999999999
tp204
a(F-9.515625
F-28.645312499999999
F1.434375
tp205
a(F-9.85546875
F-25.576171875
F-1.0757812499999999
tp206
a(F-9.85546875
F-26.258203124999998
F1.79296875
tp207
a(F-11.21484375
F-25.576171875
F1.79296875
tp208
a(F-9.85546875
F-24.894140624999999
F-1.0757812499999999
tp209
a(F-8.8359375
F-25.917187500000001
F0
tp210
a(F-9.515625
F-25.917187500000001
F2.1515624999999998
tp211
a(F-10.1953125
F-25.235156249999999
F2.8687499999999999
tp212
a(F-11.89453125
F-24.212109375000001
F2.5101562500000001
tp213
a(F-9.17578125
F-24.212109375000001
F3.2273437499999997
tp214
a(F-9.17578125
F-26.258203124999998
F1.0757812499999999
tp215
a(F-10.53515625
F-26.258203124999998
F2.5101562500000001
tp216
a(F-9.85546875
F-26.258203124999998
F1.0757812499999999
tp217
a(F-8.15625
F-25.917187500000001
F2.1515624999999998
tp218
a(F-10.53515625
F-24.894140624999999
F2.5101562500000001
tp219
a(F-10.53515625
F-24.894140624999999
F1.79296875
tp220
a(F-9.515625
F-23.87109375
F1.434375
tp221
a(F-10.53515625
F-24.894140624999999
F2.5101562500000001
tp222
a(F-8.49609375
F-24.894140624999999
F1.79296875
tp223
a(F-9.85546875
F-26.258203124999998
F2.5101562500000001
tp224
a(F-9.17578125
F-22.848046874999998
F4.6617187499999995
tp225
a(F-9.85546875
F-26.258203124999998
F3.2273437499999997
tp226
a(F-9.85546875
F-24.894140624999999
F2.5101562500000001
tp227
a(F-9.515625
F-25.235156249999999
F2.1515624999999998
tp228
a(F-10.875
F-24.553124999999998
F2.1515624999999998
tp229
a(F-9.17578125
F-24.894140624999999
F1.79296875
tp230
a(F-8.8359375
F-23.87109375
F2.8687499999999999
tp231
a(F-11.21484375
F-24.894140624999999
F2.5101562500000001
tp232
a(F-10.1953125
F-25.235156249999999
F0
tp233
a(F-10.1953125
F-23.189062499999999
F-0.71718749999999998
tp234
a(F-9.85546875
F-24.212109375000001
F2.5101562500000001
tp235
a(F-9.515625
F-26.599218749999999
F1.434375
tp236
a(F-9.515625
F-25.235156249999999
F0.71718749999999998
tp237
a(F-9.17578125
F-24.212109375000001
F1.79296875
tp238
a(F-10.53515625
F-25.576171875
F0.35859374999999999
tp239
a(F-9.515625
F-25.917187500000001
F2.8687499999999999
tp240
a(F-8.8359375
F-24.553124999999998
F2.1515624999999998
tp241
a(F-8.15625
F-25.235156249999999
F2.8687499999999999
tp242
a(F-11.89453125
F-24.894140624999999
F3.2273437499999997
tp243
a(F-9.85546875
F-24.894140624999999
F0.35859374999999999
tp244
a(F-9.17578125
F-24.212109375000001
F1.79296875
tp245
a(F-8.49609375
F-23.530078124999999
F2.5101562500000001
tp246
a(F-9.85546875
F-24.212109375000001
F-0.35859374999999999
tp247
a(F-9.515625
F-25.917187500000001
F2.1515624999999998
tp248
a(F-10.1953125
F-25.917187500000001
F2.1515624999999998
tp249
a(F-9.85546875
F-25.576171875
F1.0757812499999999
tp250
a(F-9.85546875
F-24.212109375000001
F-0.35859374999999999
tp251
a(F-9.85546875
F-24.894140624999999
F3.2273437499999997
tp252
a(F-7.81640625
F-24.894140624999999
F0.35859374999999999
tp253
a(F-9.17578125
F-25.576171875
F2.5101562500000001
tp254
a(F-10.53515625
F-24.212109375000001
F3.2273437499999997
tp255
a(F-8.8359375
F-24.553124999999998
F1.434375
tp256
a(F-10.875
F-23.87109375
F0.71718749999999998
tp257
a(F-9.515625
F-25.917187500000001
F1.434375
tp258
a(F-9.515625
F-26.599218749999999
F1.434375
tp259
a(F-9.515625
F-25.917187500000001
F2.8687499999999999
tp260
a(F-8.49609375
F-26.258203124999998
F1.79296875
tp261
a(F-10.53515625
F-26.258203124999998
F1.0757812499999999
tp262
a(F-11.89453125
F-24.212109375000001
F2.5101562500000001
tp263
a(F-9.17578125
F-23.530078124999999
F2.5101562500000001
tp264
a(F-11.21484375
F-26.258203124999998
F1.0757812499999999
tp265
a(F-8.8359375
F-24.553124999999998
F1.434375
tp266
a(F-9.85546875
F-23.530078124999999
F2.5101562500000001
tp267
a(F-9.85546875
F-25.576171875
F4.6617187499999995
tp268
a(F-9.17578125
F-25.576171875
F1.0757812499999999
tp269
a(F-9.85546875
F-26.940234374999999
F2.5101562500000001
tp270
a(F-11.21484375
F-24.894140624999999
F2.5101562500000001
tp271
a(F-7.81640625
F-24.894140624999999
F3.2273437499999997
tp272
a(F-10.875
F-25.917187500000001
F2.8687499999999999
tp273
a(F-10.1953125
F-25.917187500000001
F2.1515624999999998
tp274
a(F-9.85546875
F-24.894140624999999
F3.9445312499999998
tp275
a(F-9.17578125
F-26.940234374999999
F1.79296875
tp276
a(F-8.49609375
F-26.940234374999999
F1.79296875
tp277
a(F-9.515625
F-25.235156249999999
F2.1515624999999998
tp278
a(F-10.53515625
F-25.576171875
F1.79296875
tp279
a(F-8.8359375
F-26.599218749999999
F2.1515624999999998
tp280
a(F-9.17578125
F-25.576171875
F2.5101562500000001
tp281
a(F-10.1953125
F-25.235156249999999
F1.434375
tp282
a(F-9.515625
F-24.553124999999998
F0.71718749999999998
tp283
a(F-9.515625
F-24.553124999999998
F-0.71718749999999998
tp284
a(F-9.515625
F-26.599218749999999
F0.71718749999999998
tp285
a(F-9.17578125
F-25.576171875
F-0.35859374999999999
tp286
a(F-11.21484375
F-26.258203124999998
F0.35859374999999999
tp287
a(F-9.85546875
F-24.212109375000001
F2.5101562500000001
tp288
a(F-8.8359375
F-25.235156249999999
F0
tp289
a(F-9.17578125
F-25.576171875
F1.79296875
tp290
a(F-7.4765625
F-24.553124999999998
F1.434375
tp291
a(F-9.85546875
F-24.894140624999999
F0.35859374999999999
tp292
a(F-8.49609375
F-25.576171875
F2.5101562500000001
tp293
a(F-8.8359375
F-25.917187500000001
F2.1515624999999998
tp294
a(F-10.53515625
F-25.576171875
F1.79296875
tp295
a(F-8.15625
F-24.553124999999998
F1.434375
tp296
a(F-9.85546875
F-24.894140624999999
F1.79296875
tp297
a(F-8.8359375
F-26.599218749999999
F1.434375
tp298
a(F-8.49609375
F-23.530078124999999
F1.79296875
tp299
a(F-11.21484375
F-24.894140624999999
F1.0757812499999999
tp300
a(F-9.85546875
F-26.940234374999999
F2.5101562500000001
tp301
a(F-9.515625
F-25.235156249999999
F2.8687499999999999
tp302
a(F-10.53515625
F-25.576171875
F1.79296875
tp303
a(F-9.515625
F-25.917187500000001
F2.1515624999999998
tp304
a(F-8.49609375
F-25.576171875
F0.35859374999999999
tp305
a(F-10.1953125
F-23.87109375
F2.1515624999999998
tp306
a(F-9.515625
F-25.235156249999999
F0.71718749999999998
tp307
a(F-9.515625
F-24.553124999999998
F1.434375
tp308
a(F-10.1953125
F-25.235156249999999
F1.434375
tp309
a(F-9.515625
F-23.87109375
F2.1515624999999998
tp310
a(F-10.1953125
F-25.235156249999999
F2.1515624999999998
tp311
a(F-8.8359375
F-24.553124999999998
F0.71718749999999998
tp312
a(F-8.8359375
F-26.599218749999999
F1.434375
tp313
a(F-10.53515625
F-24.894140624999999
F-0.35859374999999999
tp314
a(F-8.15625
F-25.917187500000001
F2.1515624999999998
tp315
a(F-10.1953125
F-24.553124999999998
F2.1515624999999998
tp316
a(F-9.85546875
F-25.576171875
F1.0757812499999999
tp317
a(F-9.85546875
F-25.576171875
F1.79296875
tp318
a(F-7.81640625
F-24.212109375000001
F3.2273437499999997
tp319
a(F-8.49609375
F-25.576171875
F1.0757812499999999
tp320
a(F-9.17578125
F-24.212109375000001
F1.79296875
tp321
a(F-8.8359375
F-26.599218749999999
F2.1515624999999998
tp322
a(F-8.49609375
F-24.894140624999999
F1.0757812499999999
tp323
a(F-10.1953125
F-24.553124999999998
F2.8687499999999999
tp324
a(F-9.17578125
F-24.212109375000001
F1.79296875
tp325
a(F-9.515625
F-25.235156249999999
F1.434375
tp326
a(F-9.85546875
F-24.894140624999999
F3.2273437499999997
tp327
a(F-8.8359375
F-25.917187500000001
F0
tp328
a(F-9.17578125
F-24.894140624999999
F3.9445312499999998
tp329
a(F-10.875
F-25.917187500000001
F2.1515624999999998
tp330
a(F-10.1953125
F-24.553124999999998
F1.434375
tp331
a(F-9.17578125
F-24.212109375000001
F1.0757812499999999
tp332
a(F-10.875
F-24.553124999999998
F2.1515624999999998
tp333
a(F-9.85546875
F-26.258203124999998
F0.35859374999999999
tp334
a(F-10.53515625
F-26.258203124999998
F3.2273437499999997
tp335
a(F-9.85546875
F-25.576171875
F1.79296875
tp336
a(F-8.8359375
F-25.917187500000001
F1.434375
tp337
a(F-7.81640625
F-24.212109375000001
F3.2273437499999997
tp338
a(F-10.1953125
F-25.235156249999999
F1.434375
tp339
a(F-8.49609375
F-25.576171875
F3.2273437499999997
tp340
a(F-8.49609375
F-26.258203124999998
F1.0757812499999999
tp341
a(F-9.515625
F-24.553124999999998
F1.434375
tp342
a(F-10.1953125
F-24.553124999999998
F2.1515624999999998
tp343
a(F-10.875
F-25.235156249999999
F2.1515624999999998
tp344
a(F-9.85546875
F-26.258203124999998
F2.5101562500000001
tp345
a(F-10.53515625
F-25.576171875
F2.5101562500000001
tp346
a(F-9.85546875
F-26.258203124999998
F1.0757812499999999
tp347
a(F-10.53515625
F-24.894140624999999
F1.79296875
tp348
a(F-9.85546875
F-24.894140624999999
F1.79296875
tp349
a(F-10.1953125
F-25.917187500000001
F1.434375
tp350
a(F-11.21484375
F-26.940234374999999
F1.79296875
tp351
a(F-9.85546875
F-24.894140624999999
F3.9445312499999998
tp352
a(F-8.49609375
F-27.622265625000001
F2.5101562500000001
tp353
a(F-9.515625
F-25.235156249999999
F2.1515624999999998
tp354
a(F-9.515625
F-23.87109375
F2.1515624999999998
tp355
a(F-9.85546875
F-24.894140624999999
F1.79296875
tp356
a(F-9.85546875
F-24.212109375000001
F1.79296875
tp357
a(F-9.85546875
F-25.576171875
F1.0757812499999999
tp358
a(F-8.8359375
F-25.917187500000001
F2.1515624999999998
tp359
a(F-8.15625
F-24.553124999999998
F1.434375
tp360
a(F-9.515625
F-24.553124999999998
F2.1515624999999998
tp361
a(F-10.1953125
F-25.235156249999999
F0.71718749999999998
tp362
a(F-11.21484375
F-24.894140624999999
F2.5101562500000001
tp363
a(F-10.1953125
F-24.553124999999998
F0
tp364
a(F-10.1953125
F-25.917187500000001
F2.1515624999999998
tp365
a(F-8.49609375
F-24.894140624999999
F1.79296875
tp366
a(F-10.53515625
F-24.894140624999999
F1.79296875
tp367
a(F-8.8359375
F-25.917187500000001
F1.434375
tp368
a(F-9.17578125
F-25.576171875
F1.79296875
tp369
a(F-9.85546875
F-25.576171875
F1.79296875
tp370
a(F-8.49609375
F-25.576171875
F1.79296875
tp371
a(F-8.15625
F-25.917187500000001
F1.434375
tp372
a(F-8.15625
F-24.553124999999998
F0.71718749999999998
tp373
a(F-10.53515625
F-24.894140624999999
F1.0757812499999999
tp374
a(F-7.81640625
F-26.258203124999998
F2.5101562500000001
tp375
a(F-8.8359375
F-25.235156249999999
F0.71718749999999998
tp376
a(F-9.515625
F-25.917187500000001
F1.434375
tp377
a(F-10.1953125
F-27.28125
F1.434375
tp378
a(F-9.85546875
F-24.894140624999999
F2.5101562500000001
tp379
a(F-8.8359375
F-25.917187500000001
F1.434375
tp380
a(F-9.17578125
F-26.258203124999998
F2.5101562500000001
tp381
a(F-9.85546875
F-25.576171875
F2.5101562500000001
tp382
a(F-8.8359375
F-25.917187500000001
F0.71718749999999998
tp383
a(F-10.1953125
F-25.235156249999999
F1.434375
tp384
a(F-8.8359375
F-25.917187500000001
F1.434375
tp385
a(F-8.8359375
F-26.599218749999999
F2.1515624999999998
tp386
a(F-9.85546875
F-26.258203124999998
F2.5101562500000001
tp387
a(F-9.85546875
F-24.212109375000001
F2.5101562500000001
tp388
a(F-7.4765625
F-25.235156249999999
F0.71718749999999998
tp389
a(F-10.1953125
F-24.553124999999998
F1.434375
tp390
a(F-6.796875
F-25.917187500000001
F2.8687499999999999
tp391
a(F-10.53515625
F-24.894140624999999
F1.79296875
tp392
a(F-10.875
F-25.235156249999999
F0
tp393
a(F-8.49609375
F-25.576171875
F1.0757812499999999
tp394
a(F-8.8359375
F-25.917187500000001
F0.71718749999999998
tp395
a(F-10.53515625
F-24.894140624999999
F3.2273437499999997
tp396
a(F-9.17578125
F-24.894140624999999
F1.79296875
tp397
a(F-9.85546875
F-26.258203124999998
F1.79296875
tp398
a(F-10.1953125
F-25.235156249999999
F2.1515624999999998
tp399
a(F-9.17578125
F-23.530078124999999
F1.0757812499999999
tp400
a(F-9.17578125
F-23.530078124999999
F3.2273437499999997
tp401
a(F-9.515625
F-23.87109375
F2.1515624999999998
tp402
a(F-10.1953125
F-25.917187500000001
F0.71718749999999998
tp403
a(F-10.1953125
F-24.553124999999998
F0.71718749999999998
tp404
a(F-10.1953125
F-25.235156249999999
F2.1515624999999998
tp405
a(F-10.53515625
F-24.894140624999999
F0.35859374999999999
tp406
a(F-9.515625
F-24.553124999999998
F2.1515624999999998
tp407
a(F-10.1953125
F-24.553124999999998
F1.434375
tp408
a(F-10.53515625
F-24.894140624999999
F2.5101562500000001
tp409
a(F-9.515625
F-23.87109375
F0.71718749999999998
tp410
a(F-9.85546875
F-23.530078124999999
F1.0757812499999999
tp411
a(F-10.875
F-25.235156249999999
F0.71718749999999998
tp412
a(F-9.85546875
F-25.576171875
F1.79296875
tp413
a(F-9.85546875
F-26.258203124999998
F0.35859374999999999
tp414
a(F-10.1953125
F-25.235156249999999
F0.71718749999999998
tp415
a(F-9.85546875
F-25.576171875
F-0.35859374999999999
tp416
a(F-9.85546875
F-25.576171875
F1.0757812499999999
tp417
a(F-9.515625
F-25.917187500000001
F0.71718749999999998
tp418
a(F-9.85546875
F-24.212109375000001
F3.2273437499999997
tp419
a(F-9.85546875
F-25.576171875
F1.79296875
tp420
a(F-10.875
F-25.235156249999999
F0.71718749999999998
tp421
a(F-11.21484375
F-24.212109375000001
F1.0757812499999999
tp422
a(F-9.515625
F-26.599218749999999
F1.434375
tp423
a(F-10.1953125
F-25.917187500000001
F3.5859375
tp424
a(F-9.85546875
F-26.940234374999999
F3.9445312499999998
tp425
a(F-8.49609375
F-24.212109375000001
F3.2273437499999997
tp426
a(F-10.1953125
F-25.235156249999999
F2.1515624999999998
tp427
a(F-10.53515625
F-26.258203124999998
F0.35859374999999999
tp428
a(F-9.515625
F-25.917187500000001
F1.434375
tp429
a(F-10.1953125
F-24.553124999999998
F0.71718749999999998
tp430
a(F-9.515625
F-25.235156249999999
F2.1515624999999998
tp431
a(F-8.15625
F-24.553124999999998
F2.1515624999999998
tp432
a(F-8.49609375
F-25.576171875
F0.35859374999999999
tp433
a(F-9.17578125
F-25.576171875
F-0.35859374999999999
tp434
a(F-9.515625
F-25.917187500000001
F2.1515624999999998
tp435
a(F-8.8359375
F-25.235156249999999
F1.434375
tp436
a(F-10.1953125
F-24.553124999999998
F2.8687499999999999
tp437
a(F-9.85546875
F-25.576171875
F1.0757812499999999
tp438
a(F-9.515625
F-24.553124999999998
F2.8687499999999999
tp439
a(F-8.8359375
F-24.553124999999998
F0.71718749999999998
tp440
a(F-10.1953125
F-24.553124999999998
F0
tp441
a(F-8.15625
F-24.553124999999998
F2.1515624999999998
tp442
a(F-9.17578125
F-25.576171875
F1.0757812499999999
tp443
a(F-10.53515625
F-26.940234374999999
F1.79296875
tp444
a(F-10.1953125
F-24.553124999999998
F1.434375
tp445
a(F-8.8359375
F-25.235156249999999
F0
tp446
a(F-9.515625
F-25.235156249999999
F2.8687499999999999
tp447
a(F-8.8359375
F-25.235156249999999
F0.71718749999999998
tp448
a(F-10.53515625
F-24.894140624999999
F3.9445312499999998
tp449
a(F-9.17578125
F-24.894140624999999
F2.5101562500000001
tp450
a(F-10.875
F-24.553124999999998
F1.434375
tp451
a(F-9.85546875
F-24.894140624999999
F1.0757812499999999
tp452
a(F-8.8359375
F-24.553124999999998
F2.8687499999999999
tp453
a(F-8.8359375
F-25.235156249999999
F1.434375
tp454
a(F-10.1953125
F-25.235156249999999
F2.1515624999999998
tp455
a(F-10.53515625
F-24.894140624999999
F1.0757812499999999
tp456
a(F-8.8359375
F-24.553124999999998
F2.8687499999999999
tp457
asS'gyro_data'
p458
(lp459
(F-1.83206106870229
F-0.82442748091603058
F0.16030534351145037
tp460
a(F-2.0916030534351147
F-1.2290076335877862
F0.47328244274809161
tp461
a(F-1.5648854961832062
F-1.1450381679389312
F0.29770992366412213
tp462
a(F-1.9007633587786259
F-0.72519083969465647
F0.25954198473282442
tp463
a(F-1.6412213740458015
F-1.0381679389312977
F-0.076335877862595422
tp464
a(F-1.6870229007633588
F-1.2442748091603053
F0.17557251908396945
tp465
a(F-1.8167938931297709
F-1.0610687022900764
F0.045801526717557252
tp466
a(F-1.8931297709923665
F-0.6717557251908397
F0.29007633587786258
tp467
a(F-1.7557251908396947
F-0.94656488549618323
F0.19847328244274809
tp468
a(F-1.633587786259542
F-1.0229007633587786
F0.076335877862595422
tp469
a(F-1.7022900763358779
F-0.94656488549618323
F0.083969465648854963
tp470
a(F-1.7938931297709924
F-1.2213740458015268
F0.16030534351145037
tp471
a(F-1.8015267175572518
F-0.74809160305343514
F0.14503816793893129
tp472
a(F-2.0152671755725189
F-1.2213740458015268
F0.27480916030534353
tp473
a(F-1.9694656488549618
F-1.2442748091603053
F0.20610687022900764
tp474
a(F-1.8702290076335877
F-0.96183206106870234
F0.42748091603053434
tp475
a(F-2.0916030534351147
F-1.0152671755725191
F0.053435114503816793
tp476
a(F-1.8015267175572518
F-1.0763358778625953
F0.038167938931297711
tp477
a(F-1.7022900763358779
F-0.77862595419847325
F0.068702290076335881
tp478
a(F-1.6412213740458015
F-1.2366412213740459
F0.083969465648854963
tp479
a(F-1.9083969465648856
F-1.0152671755725191
F0.19847328244274809
tp480
a(F-1.8015267175572518
F-1.0076335877862594
F0.29770992366412213
tp481
a(F-1.8244274809160306
F-0.85496183206106868
F0.34351145038167941
tp482
a(F-1.8931297709923665
F-0.87786259541984735
F0.31297709923664124
tp483
a(F-1.8091603053435115
F-1.0687022900763359
F0.38931297709923662
tp484
a(F-2.053435114503817
F-0.87022900763358779
F0.22137404580152673
tp485
a(F-2.0229007633587788
F-1.0152671755725191
F0.068702290076335881
tp486
a(F-1.8015267175572518
F-0.97709923664122134
F0.23664122137404581
tp487
a(F-1.8854961832061068
F-0.98473282442748089
F0.13740458015267176
tp488
a(F-1.9618320610687023
F-1.1221374045801527
F0.27480916030534353
tp489
a(F-1.9465648854961832
F-1.0381679389312977
F0.28244274809160308
tp490
a(F-1.3511450381679388
F-1.0763358778625953
F0.13740458015267176
tp491
a(F-1.9694656488549618
F-0.85496183206106868
F0.061068702290076333
tp492
a(F-1.7022900763358779
F-1.0534351145038168
F0.022900763358778626
tp493
a(F-1.9770992366412214
F-0.99236641221374045
F0.15267175572519084
tp494
a(F-1.8931297709923665
F-1.0916030534351144
F0
tp495
a(F-1.7786259541984732
F-1.0916030534351144
F-0.030534351145038167
tp496
a(F-1.9389312977099236
F-1.1297709923664123
F0.36641221374045801
tp497
a(F-1.5572519083969465
F-0.7862595419847328
F0.4351145038167939
tp498
a(F-1.8625954198473282
F-1.0916030534351144
F0.12977099236641221
tp499
a(F-1.7862595419847329
F-0.80916030534351147
F0.22900763358778625
tp500
a(F-1.8854961832061068
F-1.1068702290076335
F0.14503816793893129
tp501
a(F-1.8244274809160306
F-0.93893129770992367
F0.24427480916030533
tp502
a(F-1.8549618320610688
F-0.97709923664122134
F0.14503816793893129
tp503
a(F-1.6946564885496183
F-1.1374045801526718
F-0.22137404580152673
tp504
a(F-1.9389312977099236
F-0.96946564885496178
F0.091603053435114504
tp505
a(F-1.916030534351145
F-1.1221374045801527
F0.22900763358778625
tp506
a(F-1.6946564885496183
F-1.1145038167938932
F0.25954198473282442
tp507
a(F-2.0916030534351147
F-0.87786259541984735
F0.076335877862595422
tp508
a(F-2.0305343511450382
F-1.0152671755725191
F0.19847328244274809
tp509
a(F-1.7404580152671756
F-0.81679389312977102
F0.41221374045801529
tp510
a(F-1.8244274809160306
F-0.95419847328244278
F0.35877862595419846
tp511
a(F-1.5648854961832062
F-1.0076335877862594
F0.12977099236641221
tp512
a(F-1.916030534351145
F-0.91603053435114501
F0.061068702290076333
tp513
a(F-1.7786259541984732
F-0.96946564885496178
F0.053435114503816793
tp514
a(F-1.9007633587786259
F-1.0458015267175573
F0.16030534351145037
tp515
a(F-1.5954198473282444
F-1.0992366412213741
F0.27480916030534353
tp516
a(F-1.6030534351145038
F-0.98473282442748089
F0.13740458015267176
tp517
a(F-1.8702290076335877
F-1.1297709923664123
F0.16793893129770993
tp518
a(F-1.5954198473282444
F-1.0381679389312977
F0.46564885496183206
tp519
a(F-1.8091603053435115
F-0.98473282442748089
F0.35114503816793891
tp520
a(F-1.7557251908396947
F-1.083969465648855
F0.091603053435114504
tp521
a(F-1.9923664122137406
F-0.98473282442748089
F0.083969465648854963
tp522
a(F-1.5343511450381679
F-1.0152671755725191
F0.17557251908396945
tp523
a(F-1.6412213740458015
F-0.80916030534351147
F-0.015267175572519083
tp524
a(F-1.6641221374045803
F-1.0305343511450382
F0.015267175572519083
tp525
a(F-1.9847328244274809
F-1.0687022900763359
F0.34351145038167941
tp526
a(F-1.5725190839694656
F-1.0610687022900764
F0.19847328244274809
tp527
a(F-1.7862595419847329
F-1.2366412213740459
F0.24427480916030533
tp528
a(F-1.6641221374045803
F-0.91603053435114501
F0.29770992366412213
tp529
a(F-1.8778625954198473
F-0.93893129770992367
F0.33587786259541985
tp530
a(F-2.0687022900763359
F-1.0763358778625953
F0.26717557251908397
tp531
a(F-1.8091603053435115
F-1.1374045801526718
F0.25954198473282442
tp532
a(F-1.9007633587786259
F-1.2366412213740459
F-0.038167938931297711
tp533
a(F-1.7862595419847329
F-0.91603053435114501
F0.11450381679389313
tp534
a(F-1.9236641221374047
F-1.0687022900763359
F0.25954198473282442
tp535
a(F-1.7251908396946565
F-0.8854961832061069
F0.099236641221374045
tp536
a(F-2.0610687022900764
F-0.93893129770992367
F0.46564885496183206
tp537
a(F-1.7786259541984732
F-1.0763358778625953
F0.34351145038167941
tp538
a(F-1.8015267175572518
F-1.0534351145038168
F0.35114503816793891
tp539
a(F-1.6259541984732824
F-0.93893129770992367
F0.28244274809160308
tp540
a(F-1.6641221374045803
F-0.95419847328244278
F-0.045801526717557252
tp541
a(F-1.7328244274809161
F-0.83969465648854957
F0.38167938931297712
tp542
a(F-1.7022900763358779
F-1.0229007633587786
F0.33587786259541985
tp543
a(F-1.8778625954198473
F-0.96183206106870234
F0.49618320610687022
tp544
a(F-1.6870229007633588
F-1.2290076335877862
F0.23664122137404581
tp545
a(F-1.6793893129770991
F-0.93129770992366412
F-0.022900763358778626
tp546
a(F-1.9541984732824427
F-1.0458015267175573
F0.25954198473282442
tp547
a(F-2.0381679389312977
F-1.0076335877862594
F0.19847328244274809
tp548
a(F-1.8931297709923665
F-1.0763358778625953
F0.29770992366412213
tp549
a(F-2.0992366412213741
F-1.0305343511450382
F0.12213740458015267
tp550
a(F-2.0152671755725189
F-0.93893129770992367
F0.36641221374045801
tp551
a(F-1.9236641221374047
F-1.0076335877862594
F0.35114503816793891
tp552
a(F-1.9389312977099236
F-0.96183206106870234
F0.13740458015267176
tp553
a(F-1.8625954198473282
F-1.0152671755725191
F0.16030534351145037
tp554
a(F-1.8473282442748091
F-1.083969465648855
F0.015267175572519083
tp555
a(F-1.6106870229007633
F-1.0305343511450382
F-0.022900763358778626
tp556
a(F-1.7862595419847329
F-1.0381679389312977
F0.053435114503816793
tp557
a(F-1.8778625954198473
F-0.98473282442748089
F-0.022900763358778626
tp558
a(F-1.8778625954198473
F-0.8854961832061069
F0.099236641221374045
tp559
a(F-1.7099236641221374
F-1.0076335877862594
F0.038167938931297711
tp560
a(F-1.5572519083969465
F-0.93893129770992367
F0.45038167938931295
tp561
a(F-1.8931297709923665
F-1.0534351145038168
F0.22137404580152673
tp562
a(F-1.6030534351145038
F-1.1374045801526718
F0.12213740458015267
tp563
a(F-1.8015267175572518
F-1.0687022900763359
F0.27480916030534353
tp564
a(F-1.8167938931297709
F-1.0381679389312977
F0.25954198473282442
tp565
a(F-1.9236641221374047
F-0.89312977099236646
F0.068702290076335881
tp566
a(F-1.8854961832061068
F-0.8854961832061069
F0.076335877862595422
tp567
a(F-2.0687022900763359
F-0.93129770992366412
F-0.015267175572519083
tp568
a(F-1.7862595419847329
F-1.0687022900763359
F0.3282442748091603
tp569
a(F-2.0076335877862594
F-0.93129770992366412
F0.14503816793893129
tp570
a(F-1.8244274809160306
F-0.84732824427480913
F0.053435114503816793
tp571
a(F-1.6412213740458015
F-1.1603053435114503
F0.37404580152671757
tp572
a(F-1.8473282442748091
F-1.0229007633587786
F0.4351145038167939
tp573
a(F-1.6564885496183206
F-0.96946564885496178
F0.091603053435114504
tp574
a(F-1.6946564885496183
F-0.82442748091603058
F0.091603053435114504
tp575
a(F-1.5954198473282444
F-1.0610687022900764
F0.061068702290076333
tp576
a(F-1.6793893129770991
F-1.1297709923664123
F0.083969465648854963
tp577
a(F-1.9236641221374047
F-0.97709923664122134
F0.12977099236641221
tp578
a(F-1.748091603053435
F-0.87022900763358779
F0.28244274809160308
tp579
a(F-1.9312977099236641
F-1.0152671755725191
F0.54961832061068705
tp580
a(F-1.9465648854961832
F-0.8854961832061069
F0.19083969465648856
tp581
a(F-1.6717557251908397
F-1.0687022900763359
F0.12213740458015267
tp582
a(F-1.9007633587786259
F-1.2748091603053435
F0.061068702290076333
tp583
a(F-1.9312977099236641
F-0.93129770992366412
F0.12213740458015267
tp584
a(F-2
F-0.96946564885496178
F0.34351145038167941
tp585
a(F-1.8625954198473282
F-0.98473282442748089
F0.20610687022900764
tp586
a(F-1.7022900763358779
F-1.083969465648855
F0.22137404580152673
tp587
a(F-1.8625954198473282
F-0.94656488549618323
F0.083969465648854963
tp588
a(F-1.9083969465648856
F-1.083969465648855
F0.41984732824427479
tp589
a(F-1.4427480916030535
F-0.96946564885496178
F0.015267175572519083
tp590
a(F-1.6564885496183206
F-0.85496183206106868
F0.17557251908396945
tp591
a(F-1.7786259541984732
F-0.93893129770992367
F0.015267175572519083
tp592
a(F-1.8473282442748091
F-1.0381679389312977
F-0.038167938931297711
tp593
a(F-1.6717557251908397
F-1.0381679389312977
F0.16793893129770993
tp594
a(F-1.7862595419847329
F-1.0381679389312977
F-0.030534351145038167
tp595
a(F-1.8091603053435115
F-1.0534351145038168
F0.099236641221374045
tp596
a(F-1.6870229007633588
F-0.93893129770992367
F0.29007633587786258
tp597
a(F-1.5572519083969465
F-0.98473282442748089
F-0.16030534351145037
tp598
a(F-1.9618320610687023
F-0.96183206106870234
F0.068702290076335881
tp599
a(F-1.8091603053435115
F-0.93129770992366412
F0.18320610687022901
tp600
a(F-1.6870229007633588
F-0.93129770992366412
F0.068702290076335881
tp601
a(F-1.9389312977099236
F-1.0381679389312977
F0.51145038167938928
tp602
a(F-1.6946564885496183
F-0.85496183206106868
F0.14503816793893129
tp603
a(F-1.633587786259542
F-0.86259541984732824
F0.26717557251908397
tp604
a(F-1.916030534351145
F-0.85496183206106868
F0.4580152671755725
tp605
a(F-1.6564885496183206
F-0.8854961832061069
F0.091603053435114504
tp606
a(F-1.8167938931297709
F-0.93893129770992367
F0.11450381679389313
tp607
a(F-1.6870229007633588
F-1.0687022900763359
F0.091603053435114504
tp608
a(F-1.5496183206106871
F-1.1068702290076335
F0.083969465648854963
tp609
a(F-1.8015267175572518
F-1.0534351145038168
F0.24427480916030533
tp610
a(F-1.717557251908397
F-0.80152671755725191
F0.068702290076335881
tp611
a(F-1.5038167938931297
F-1.0458015267175573
F0.10687022900763359
tp612
a(F-1.7938931297709924
F-0.99236641221374045
F0.45038167938931295
tp613
a(F-1.8549618320610688
F-0.93893129770992367
F0.44274809160305345
tp614
a(F-1.8091603053435115
F-1.083969465648855
F0.35877862595419846
tp615
a(F-1.5496183206106871
F-1
F0.16030534351145037
tp616
a(F-1.8396946564885497
F-0.83969465648854957
F0.16030534351145037
tp617
a(F-1.6488549618320612
F-0.83969465648854957
F0
tp618
a(F-1.7328244274809161
F-1.0076335877862594
F-0.015267175572519083
tp619
a(F-1.8931297709923665
F-1.0610687022900764
F0.27480916030534353
tp620
a(F-1.7328244274809161
F-0.9007633587786259
F0.099236641221374045
tp621
a(F-1.6717557251908397
F-1.1526717557251909
F0.29007633587786258
tp622
a(F-1.6259541984732824
F-1.0229007633587786
F0.29770992366412213
tp623
a(F-1.633587786259542
F-0.86259541984732824
F0.25954198473282442
tp624
a(F-1.6870229007633588
F-1.0916030534351144
F0.25954198473282442
tp625
a(F-1.7862595419847329
F-1.1755725190839694
F0.3282442748091603
tp626
a(F-1.7938931297709924
F-1
F0.27480916030534353
tp627
a(F-1.6106870229007633
F-1.2137404580152671
F0.13740458015267176
tp628
a(F-1.8015267175572518
F-0.91603053435114501
F0.030534351145038167
tp629
a(F-1.9618320610687023
F-0.90839694656488545
F-0.030534351145038167
tp630
a(F-1.7709923664122138
F-1.0458015267175573
F0.083969465648854963
tp631
a(F-1.8473282442748091
F-1.2290076335877862
F0.099236641221374045
tp632
a(F-1.9847328244274809
F-0.94656488549618323
F-0.015267175572519083
tp633
a(F-1.8015267175572518
F-0.96183206106870234
F0.27480916030534353
tp634
a(F-1.6259541984732824
F-0.8854961832061069
F0.38931297709923662
tp635
a(F-1.8473282442748091
F-1.1145038167938932
F0.24427480916030533
tp636
a(F-1.916030534351145
F-1.1221374045801527
F-0.022900763358778626
tp637
a(F-1.6793893129770991
F-0.8854961832061069
F0.053435114503816793
tp638
a(F-1.6412213740458015
F-1.1374045801526718
F-0.045801526717557252
tp639
a(F-1.8702290076335877
F-0.94656488549618323
F0.34351145038167941
tp640
a(F-1.5267175572519085
F-0.95419847328244278
F0.42748091603053434
tp641
a(F-1.8625954198473282
F-1.1297709923664123
F0.045801526717557252
tp642
a(F-1.748091603053435
F-1.1908396946564885
F0.15267175572519084
tp643
a(F-1.9083969465648856
F-1.1908396946564885
F0.25190839694656486
tp644
a(F-1.7022900763358779
F-1.0763358778625953
F0.20610687022900764
tp645
a(F-1.9312977099236641
F-0.74045801526717558
F0.17557251908396945
tp646
a(F-1.7862595419847329
F-1.0076335877862594
F-0.083969465648854963
tp647
a(F-2.0458015267175571
F-1.1908396946564885
F-0.015267175572519083
tp648
a(F-1.7862595419847329
F-1.1145038167938932
F0.22900763358778625
tp649
a(F-1.8854961832061068
F-1.1068702290076335
F0.31297709923664124
tp650
a(F-1.8549618320610688
F-0.82442748091603058
F0.25190839694656486
tp651
a(F-1.8702290076335877
F-1.0076335877862594
F0.091603053435114504
tp652
a(F-1.7022900763358779
F-0.93129770992366412
F0.20610687022900764
tp653
a(F-1.8015267175572518
F-1.1908396946564885
F0.076335877862595422
tp654
a(F-1.8778625954198473
F-1
F0.061068702290076333
tp655
a(F-1.6641221374045803
F-1.1755725190839694
F-0.083969465648854963
tp656
a(F-1.83206106870229
F-1.2061068702290076
F0.053435114503816793
tp657
a(F-1.6564885496183206
F-0.96183206106870234
F0.22900763358778625
tp658
a(F-1.9770992366412214
F-0.94656488549618323
F0.038167938931297711
tp659
a(F-1.6641221374045803
F-1.2061068702290076
F0.30534351145038169
tp660
a(F-1.9083969465648856
F-0.96946564885496178
F0.31297709923664124
tp661
a(F-1.916030534351145
F-1.0152671755725191
F0.24427480916030533
tp662
a(F-1.748091603053435
F-1.0229007633587786
F0.061068702290076333
tp663
a(F-1.6488549618320612
F-0.9007633587786259
F0.0076335877862595417
tp664
a(F-1.8549618320610688
F-1.1068702290076335
F0.21374045801526717
tp665
a(F-1.7633587786259541
F-0.84732824427480913
F0.32061068702290074
tp666
a(F-1.8625954198473282
F-1.1221374045801527
F0.32061068702290074
tp667
a(F-1.6870229007633588
F-1.1755725190839694
F0.061068702290076333
tp668
a(F-1.717557251908397
F-0.86259541984732824
F0
tp669
a(F-1.9083969465648856
F-0.87786259541984735
F0.30534351145038169
tp670
a(F-1.9923664122137406
F-1.0305343511450382
F0.25190839694656486
tp671
a(F-1.8015267175572518
F-0.96183206106870234
F0.28244274809160308
tp672
a(F-1.8702290076335877
F-1
F0.23664122137404581
tp673
a(F-1.7099236641221374
F-0.77862595419847325
F0.16793893129770993
tp674
a(F-1.7786259541984732
F-1.0305343511450382
F0.068702290076335881
tp675
a(F-1.748091603053435
F-0.92366412213740456
F0.061068702290076333
tp676
a(F-1.6946564885496183
F-1.0763358778625953
F0.31297709923664124
tp677
a(F-1.633587786259542
F-1.0992366412213741
F0.17557251908396945
tp678
a(F-1.6793893129770991
F-1.0534351145038168
F0.34351145038167941
tp679
a(F-1.8473282442748091
F-1
F0.46564885496183206
tp680
a(F-1.8854961832061068
F-0.97709923664122134
F0.061068702290076333
tp681
a(F-1.5954198473282444
F-0.87022900763358779
F0.29770992366412213
tp682
a(F-1.6870229007633588
F-1.1145038167938932
F0.21374045801526717
tp683
a(F-1.9923664122137406
F-0.96946564885496178
F0.37404580152671757
tp684
a(F-1.7938931297709924
F-1.0687022900763359
F0.11450381679389313
tp685
a(F-1.8244274809160306
F-0.93129770992366412
F0.083969465648854963
tp686
a(F-1.7099236641221374
F-0.86259541984732824
F0.36641221374045801
tp687
a(F-2.2213740458015265
F-1.1526717557251909
F0.17557251908396945
tp688
a(F-1.6717557251908397
F-0.95419847328244278
F0.23664122137404581
tp689
a(F-1.6870229007633588
F-1.2748091603053435
F-0.015267175572519083
tp690
a(F-1.7557251908396947
F-1.0458015267175573
F0.022900763358778626
tp691
a(F-1.8091603053435115
F-1.0610687022900764
F0.19847328244274809
tp692
a(F-1.8549618320610688
F-1
F0.3282442748091603
tp693
a(F-1.6412213740458015
F-0.97709923664122134
F0.17557251908396945
tp694
a(F-1.9465648854961832
F-0.92366412213740456
F0.28244274809160308
tp695
a(F-1.9770992366412214
F-0.70992366412213737
F0.19847328244274809
tp696
a(F-1.717557251908397
F-1.0687022900763359
F0.38931297709923662
tp697
a(F-2
F-1.1755725190839694
F0.22900763358778625
tp698
a(F-1.6717557251908397
F-0.93893129770992367
F0.26717557251908397
tp699
a(F-1.8854961832061068
F-0.83969465648854957
F-0.0076335877862595417
tp700
a(F-1.6641221374045803
F-1.1297709923664123
F0.35114503816793891
tp701
a(F-1.4656488549618321
F-0.92366412213740456
F-0.045801526717557252
tp702
a(F-1.7099236641221374
F-1.0229007633587786
F-0.030534351145038167
tp703
a(F-1.8702290076335877
F-1.0152671755725191
F0.16030534351145037
tp704
a(F-1.5801526717557253
F-1.1145038167938932
F0.35877862595419846
tp705
a(F-1.6793893129770991
F-1
F0.21374045801526717
tp706
a(F-1.8167938931297709
F-0.91603053435114501
F0.16030534351145037
tp707
a(F-1.6106870229007633
F-0.93893129770992367
F0.25190839694656486
tp708
a(F-1.8702290076335877
F-0.96946564885496178
F0.19847328244274809
tp709
a(F-1.8473282442748091
F-1.083969465648855
F0.13740458015267176
tp710
a(F-1.8625954198473282
F-0.76335877862595425
F0.38931297709923662
tp711
a(F-1.5038167938931297
F-1.0229007633587786
F0.23664122137404581
tp712
a(F-1.8396946564885497
F-0.93129770992366412
F0.40458015267175573
tp713
a(F-1.8015267175572518
F-1.0076335877862594
F0.32061068702290074
tp714
a(F-1.6259541984732824
F-1.0229007633587786
F0.35114503816793891
tp715
a(F-1.5648854961832062
F-1.083969465648855
F0.038167938931297711
tp716
a(F-1.7709923664122138
F-0.70992366412213737
F0.083969465648854963
tp717
a(F-1.7709923664122138
F-1.16793893129771
F0.18320610687022901
tp718
a(F-1.5801526717557253
F-0.83969465648854957
F0.20610687022900764
tp719
a(F-1.6259541984732824
F-1.1526717557251909
F0.29770992366412213
tp720
a(F-1.8244274809160306
F-1.0687022900763359
F0.24427480916030533
tp721
a(F-1.7022900763358779
F-0.93893129770992367
F0.51145038167938928
tp722
a(F-1.5801526717557253
F-1.0305343511450382
F0.4351145038167939
tp723
a(F-1.9236641221374047
F-0.8854961832061069
F0.40458015267175573
tp724
a(F-1.7251908396946565
F-1.1145038167938932
F0.068702290076335881
tp725
a(F-1.8396946564885497
F-1.0305343511450382
F0.18320610687022901
tp726
a(F-1.9694656488549618
F-0.77862595419847325
F0.12213740458015267
tp727
a(F-1.9389312977099236
F-1.0916030534351144
F-0.030534351145038167
tp728
a(F-1.9236641221374047
F-1.0610687022900764
F0.0076335877862595417
tp729
a(F-1.633587786259542
F-1.0229007633587786
F0.22137404580152673
tp730
a(F-1.6564885496183206
F-0.9007633587786259
F0.22900763358778625
tp731
a(F-1.9236641221374047
F-0.92366412213740456
F0.19083969465648856
tp732
a(F-1.7404580152671756
F-0.99236641221374045
F0.13740458015267176
tp733
a(F-2
F-0.92366412213740456
F0.31297709923664124
tp734
a(F-1.8473282442748091
F-0.97709923664122134
F0.24427480916030533
tp735
a(F-1.6488549618320612
F-0.92366412213740456
F0.061068702290076333
tp736
a(F-1.7404580152671756
F-1.0152671755725191
F0.22900763358778625
tp737
a(F-1.8625954198473282
F-0.8854961832061069
F0.14503816793893129
tp738
a(F-1.83206106870229
F-0.9007633587786259
F0.18320610687022901
tp739
a(F-1.7862595419847329
F-0.97709923664122134
F0.17557251908396945
tp740
a(F-1.9770992366412214
F-1.083969465648855
F0.25190839694656486
tp741
a(F-2.114503816793893
F-1.3282442748091603
F0.23664122137404581
tp742
a(F-1.5801526717557253
F-0.91603053435114501
F0.4351145038167939
tp743
a(F-1.633587786259542
F-0.96946564885496178
F0.053435114503816793
tp744
a(F-1.8778625954198473
F-0.83969465648854957
F0.038167938931297711
tp745
a(F-1.9312977099236641
F-0.97709923664122134
F0.038167938931297711
tp746
a(F-1.9389312977099236
F-0.83206106870229013
F0.091603053435114504
tp747
a(F-1.83206106870229
F-1.282442748091603
F0.083969465648854963
tp748
a(F-2.0381679389312977
F-1.0763358778625953
F0.17557251908396945
tp749
a(F-2.0229007633587788
F-1.0458015267175573
F0.20610687022900764
tp750
a(F-1.7709923664122138
F-1.1450381679389312
F0.3282442748091603
tp751
a(F-1.717557251908397
F-1.1755725190839694
F0.20610687022900764
tp752
a(F-1.7786259541984732
F-1.0610687022900764
F0.091603053435114504
tp753
a(F-1.6717557251908397
F-0.89312977099236646
F0.4580152671755725
tp754
a(F-1.5954198473282444
F-1.0610687022900764
F0.21374045801526717
tp755
a(F-1.3816793893129771
F-0.96183206106870234
F0.22900763358778625
tp756
a(F-1.7099236641221374
F-1.1145038167938932
F0.099236641221374045
tp757
a(F-1.748091603053435
F-1.0076335877862594
F0.053435114503816793
tp758
a(F-1.5572519083969465
F-0.83206106870229013
F0.083969465648854963
tp759
a(F-1.6183206106870229
F-0.90839694656488545
F0.25954198473282442
tp760
a(F-1.8015267175572518
F-1.1221374045801527
F0.42748091603053434
tp761
a(F-1.7633587786259541
F-1.0305343511450382
F0.12977099236641221
tp762
a(F-1.6488549618320612
F-1.16793893129771
F-0.10687022900763359
tp763
a(F-1.6564885496183206
F-1.0610687022900764
F0.37404580152671757
tp764
a(F-1.8473282442748091
F-1.1145038167938932
F0.13740458015267176
tp765
a(F-2.1221374045801529
F-1.0076335877862594
F0.25954198473282442
tp766
a(F-1.9007633587786259
F-1.2061068702290076
F0.30534351145038169
tp767
a(F-1.7938931297709924
F-0.77099236641221369
F0.15267175572519084
tp768
a(F-1.8015267175572518
F-1
F0.3282442748091603
tp769
a(F-1.8625954198473282
F-1.083969465648855
F0.19083969465648856
tp770
a(F-1.633587786259542
F-1.16793893129771
F0.20610687022900764
tp771
a(F-1.6717557251908397
F-1.1145038167938932
F0.099236641221374045
tp772
a(F-1.7862595419847329
F-1.0763358778625953
F0.11450381679389313
tp773
a(F-1.4122137404580153
F-0.83969465648854957
F0.27480916030534353
tp774
a(F-1.7938931297709924
F-0.92366412213740456
F0.36641221374045801
tp775
a(F-1.748091603053435
F-1
F0.22137404580152673
tp776
a(F-1.8702290076335877
F-0.95419847328244278
F0.25190839694656486
tp777
a(F-1.5190839694656488
F-1.1832061068702291
F-0.022900763358778626
tp778
a(F-1.6717557251908397
F-0.90839694656488545
F-0.091603053435114504
tp779
a(F-1.9312977099236641
F-1.0076335877862594
F0.16793893129770993
tp780
a(F-1.8931297709923665
F-1.0305343511450382
F-0.038167938931297711
tp781
a(F-2.053435114503817
F-0.91603053435114501
F0.33587786259541985
tp782
a(F-1.6030534351145038
F-1
F0.27480916030534353
tp783
a(F-1.9312977099236641
F-0.97709923664122134
F0.38167938931297712
tp784
a(F-1.8167938931297709
F-0.87786259541984735
F0.40458015267175573
tp785
a(F-1.9694656488549618
F-1.083969465648855
F0.38167938931297712
tp786
a(F-1.7251908396946565
F-1.0916030534351144
F0.022900763358778626
tp787
a(F-1.9083969465648856
F-0.93129770992366412
F0.076335877862595422
tp788
a(F-1.7786259541984732
F-1.0229007633587786
F0.16030534351145037
tp789
a(F-1.8625954198473282
F-0.97709923664122134
F-0.0076335877862595417
tp790
a(F-1.5648854961832062
F-1.0229007633587786
F0.18320610687022901
tp791
a(F-1.7862595419847329
F-1.0229007633587786
F0.33587786259541985
tp792
a(F-1.8244274809160306
F-0.71755725190839692
F0.15267175572519084
tp793
a(F-1.5725190839694656
F-1.1908396946564885
F0.23664122137404581
tp794
a(F-1.7862595419847329
F-0.94656488549618323
F0.16030534351145037
tp795
a(F-1.7633587786259541
F-0.96946564885496178
F0.061068702290076333
tp796
a(F-1.717557251908397
F-0.94656488549618323
F0.21374045801526717
tp797
a(F-1.7404580152671756
F-1.0229007633587786
F0.076335877862595422
tp798
a(F-1.916030534351145
F-1.2213740458015268
F0.29007633587786258
tp799
a(F-1.8473282442748091
F-0.87022900763358779
F0.4580152671755725
tp800
a(F-1.7786259541984732
F-1.16793893129771
F0.26717557251908397
tp801
a(F-1.1908396946564885
F-1.1526717557251909
F0.076335877862595422
tp802
a(F-1.6946564885496183
F-1.0458015267175573
F0.15267175572519084
tp803
a(F-1.6793893129770991
F-1.0534351145038168
F0.18320610687022901
tp804
a(F-1.8167938931297709
F-1
F0.015267175572519083
tp805
a(F-1.8015267175572518
F-0.87022900763358779
F-0.061068702290076333
tp806
a(F-2.0305343511450382
F-0.87786259541984735
F0.091603053435114504
tp807
a(F-1.8931297709923665
F-0.86259541984732824
F0.18320610687022901
tp808
a(F-1.8091603053435115
F-1.0305343511450382
F0.038167938931297711
tp809
a(F-1.9465648854961832
F-0.95419847328244278
F0.14503816793893129
tp810
a(F-1.8778625954198473
F-1.1145038167938932
F0.50381679389312972
tp811
a(F-1.5725190839694656
F-1.0534351145038168
F0.23664122137404581
tp812
a(F-1.633587786259542
F-1.0992366412213741
F0.091603053435114504
tp813
a(F-1.8396946564885497
F-1.0763358778625953
F0.091603053435114504
tp814
a(F-1.8091603053435115
F-1.0076335877862594
F0.030534351145038167
tp815
a(F-1.6717557251908397
F-1.0916030534351144
F0.29770992366412213
tp816
a(F-1.8167938931297709
F-1.0916030534351144
F0.39694656488549618
tp817
a(F-1.7328244274809161
F-1.0763358778625953
F0.22137404580152673
tp818
a(F-1.7022900763358779
F-0.83969465648854957
F-0.19083969465648856
tp819
a(F-1.6870229007633588
F-1.1526717557251909
F0.030534351145038167
tp820
a(F-1.7786259541984732
F-0.85496183206106868
F0.022900763358778626
tp821
a(F-1.9847328244274809
F-1.0763358778625953
F-0.053435114503816793
tp822
a(F-1.9465648854961832
F-0.86259541984732824
F-0.022900763358778626
tp823
a(F-1.8702290076335877
F-0.93129770992366412
F0.015267175572519083
tp824
a(F-1.717557251908397
F-0.86259541984732824
F0.32061068702290074
tp825
a(F-1.8396946564885497
F-1.2595419847328244
F0.16030534351145037
tp826
a(F-1.7862595419847329
F-0.98473282442748089
F0.41221374045801529
tp827
a(F-1.633587786259542
F-0.97709923664122134
F0.35114503816793891
tp828
a(F-1.8244274809160306
F-1.0916030534351144
F0.38931297709923662
tp829
a(F-1.6030534351145038
F-0.92366412213740456
F0.22137404580152673
tp830
a(F-1.7862595419847329
F-0.91603053435114501
F0.10687022900763359
tp831
a(F-1.7404580152671756
F-1
F0.13740458015267176
tp832
a(F-1.6030534351145038
F-1.1145038167938932
F0.16793893129770993
tp833
a(F-1.7633587786259541
F-0.92366412213740456
F-0.061068702290076333
tp834
a(F-1.7557251908396947
F-1.0152671755725191
F0.17557251908396945
tp835
a(F-2.0152671755725189
F-1.083969465648855
F0.26717557251908397
tp836
a(F-1.717557251908397
F-1.0687022900763359
F0.21374045801526717
tp837
a(F-1.8778625954198473
F-1.0229007633587786
F0.23664122137404581
tp838
a(F-1.9007633587786259
F-1.2366412213740459
F0.038167938931297711
tp839
a(F-1.8473282442748091
F-0.83206106870229013
F-0.10687022900763359
tp840
a(F-1.9389312977099236
F-0.95419847328244278
F0.038167938931297711
tp841
a(F-1.748091603053435
F-1.1145038167938932
F0.038167938931297711
tp842
a(F-1.8854961832061068
F-0.9007633587786259
F-0.045801526717557252
tp843
a(F-1.7938931297709924
F-1.0763358778625953
F0.25190839694656486
tp844
a(F-1.7404580152671756
F-1.1450381679389312
F0.10687022900763359
tp845
a(F-1.8167938931297709
F-0.90839694656488545
F0.4351145038167939
tp846
a(F-1.6946564885496183
F-0.83969465648854957
F0.31297709923664124
tp847
a(F-1.9465648854961832
F-0.97709923664122134
F0.38931297709923662
tp848
a(F-1.633587786259542
F-0.97709923664122134
F0.48091603053435117
tp849
a(F-1.8396946564885497
F-0.96183206106870234
F0.015267175572519083
tp850
a(F-1.83206106870229
F-1.0992366412213741
F0.12213740458015267
tp851
a(F-1.7557251908396947
F-1.2900763358778626
F0.29770992366412213
tp852
a(F-1.6564885496183206
F-0.99236641221374045
F0.51145038167938928
tp853
a(F-1.7633587786259541
F-1.0916030534351144
F0.23664122137404581
tp854
a(F-1.83206106870229
F-0.74045801526717558
F0.16793893129770993
tp855
a(F-1.5801526717557253
F-1.0534351145038168
F0.10687022900763359
tp856
a(F-1.6641221374045803
F-1.1984732824427482
F0.16030534351145037
tp857
a(F-1.6870229007633588
F-0.85496183206106868
F-0.038167938931297711
tp858
a(F-1.7862595419847329
F-1
F0.061068702290076333
tp859
a(F-1.7633587786259541
F-0.87022900763358779
F0.32061068702290074
tp860
a(F-1.5954198473282444
F-0.81679389312977102
F0.35114503816793891
tp861
a(F-1.9312977099236641
F-0.90839694656488545
F0.053435114503816793
tp862
a(F-1.7786259541984732
F-1.1221374045801527
F0.39694656488549618
tp863
a(F-1.8167938931297709
F-1.2671755725190839
F0.076335877862595422
tp864
a(F-1.8015267175572518
F-1.0534351145038168
F-0.099236641221374045
tp865
a(F-1.9541984732824427
F-0.92366412213740456
F0.083969465648854963
tp866
a(F-1.7328244274809161
F-0.91603053435114501
F0.068702290076335881
tp867
a(F-1.6641221374045803
F-0.93893129770992367
F0.19847328244274809
tp868
a(F-1.8396946564885497
F-0.97709923664122134
F0.30534351145038169
tp869
a(F-1.8015267175572518
F-0.80916030534351147
F-0.015267175572519083
tp870
a(F-1.9694656488549618
F-0.96946564885496178
F-0.068702290076335881
tp871
a(F-1.5572519083969465
F-1.083969465648855
F0.12213740458015267
tp872
a(F-1.5801526717557253
F-1
F0.31297709923664124
tp873
a(F-1.6564885496183206
F-1
F0.29770992366412213
tp874
a(F-1.7022900763358779
F-0.73282442748091603
F0.34351145038167941
tp875
a(F-1.6946564885496183
F-1.0458015267175573
F0.31297709923664124
tp876
a(F-1.7099236641221374
F-0.80152671755725191
F0.39694656488549618
tp877
a(F-1.7328244274809161
F-0.7862595419847328
F0.40458015267175573
tp878
a(F-1.8931297709923665
F-0.91603053435114501
F0.14503816793893129
tp879
a(F-1.8778625954198473
F-0.93129770992366412
F0.045801526717557252
tp880
a(F-1.83206106870229
F-0.81679389312977102
F0.20610687022900764
tp881
a(F-1.8778625954198473
F-0.92366412213740456
F0.11450381679389313
tp882
a(F-1.6030534351145038
F-1.0305343511450382
F0.10687022900763359
tp883
a(F-1.8396946564885497
F-0.93129770992366412
F0.29007633587786258
tp884
a(F-1.6870229007633588
F-0.93893129770992367
F0.35114503816793891
tp885
a(F-1.6259541984732824
F-0.93893129770992367
F0.35114503816793891
tp886
a(F-1.6717557251908397
F-0.90839694656488545
F0.12213740458015267
tp887
a(F-1.916030534351145
F-1
F0.21374045801526717
tp888
a(F-1.8625954198473282
F-0.89312977099236646
F0.045801526717557252
tp889
a(F-1.8396946564885497
F-0.91603053435114501
F0.58778625954198471
tp890
a(F-1.6488549618320612
F-0.94656488549618323
F0.38931297709923662
tp891
a(F-1.8778625954198473
F-0.91603053435114501
F0.12213740458015267
tp892
a(F-1.6106870229007633
F-1.1297709923664123
F-0.11450381679389313
tp893
a(F-1.8549618320610688
F-0.93129770992366412
F0.20610687022900764
tp894
a(F-2.0152671755725189
F-1.0534351145038168
F0.19083969465648856
tp895
a(F-1.6641221374045803
F-0.98473282442748089
F0.42748091603053434
tp896
a(F-1.83206106870229
F-0.87022900763358779
F0.35114503816793891
tp897
a(F-1.5572519083969465
F-1.0687022900763359
F0.25954198473282442
tp898
a(F-1.8702290076335877
F-0.99236641221374045
F0.17557251908396945
tp899
a(F-1.9465648854961832
F-0.90839694656488545
F0.17557251908396945
tp900
a(F-1.6030534351145038
F-1.1068702290076335
F0.015267175572519083
tp901
a(F-1.7099236641221374
F-1.0458015267175573
F-0.16030534351145037
tp902
a(F-1.7557251908396947
F-1
F0.12977099236641221
tp903
a(F-1.7099236641221374
F-1.0687022900763359
F0.38931297709923662
tp904
a(F-1.6564885496183206
F-0.98473282442748089
F0.15267175572519084
tp905
a(F-1.8702290076335877
F-1.0305343511450382
F-0.0076335877862595417
tp906
a(F-1.7786259541984732
F-0.93893129770992367
F0.18320610687022901
tp907
a(F-1.5801526717557253
F-1.0992366412213741
F0.10687022900763359
tp908
a(F-1.8244274809160306
F-1.0229007633587786
F0.29007633587786258
tp909
a(F-1.9007633587786259
F-1.1526717557251909
F0.36641221374045801
tp910
a(F-1.8778625954198473
F-1.0992366412213741
F0.26717557251908397
tp911
a(F-1.7099236641221374
F-0.94656488549618323
F0.36641221374045801
tp912
a(F-1.5954198473282444
F-1.1068702290076335
F0.12213740458015267
tp913
asS'accel_data'
p914
(lp915
(F0.114501953125
F-0.095947265625
F0.8291015625
tp916
a(F0.119873046875
F-0.090087890625
F0.837890625
tp917
a(F0.1162109375
F-0.086181640625
F0.844482421875
tp918
a(F0.12109375
F-0.09716796875
F0.844482421875
tp919
a(F0.11669921875
F-0.092041015625
F0.834716796875
tp920
a(F0.121826171875
F-0.09228515625
F0.844482421875
tp921
a(F0.119384765625
F-0.092041015625
F0.84375
tp922
a(F0.112060546875
F-0.0908203125
F0.84423828125
tp923
a(F0.119384765625
F-0.08935546875
F0.8388671875
tp924
a(F0.114501953125
F-0.093017578125
F0.849853515625
tp925
a(F0.1171875
F-0.08935546875
F0.841552734375
tp926
a(F0.115478515625
F-0.09033203125
F0.842041015625
tp927
a(F0.11767578125
F-0.091064453125
F0.843505859375
tp928
a(F0.1181640625
F-0.100830078125
F0.84375
tp929
a(F0.123291015625
F-0.095703125
F0.835205078125
tp930
a(F0.1181640625
F-0.09033203125
F0.837890625
tp931
a(F0.1171875
F-0.092041015625
F0.8349609375
tp932
a(F0.123046875
F-0.095458984375
F0.83984375
tp933
a(F0.1171875
F-0.08935546875
F0.842529296875
tp934
a(F0.11767578125
F-0.09423828125
F0.84033203125
tp935
a(F0.12451171875
F-0.09228515625
F0.84619140625
tp936
a(F0.12060546875
F-0.095947265625
F0.842041015625
tp937
a(F0.11767578125
F-0.09033203125
F0.842529296875
tp938
a(F0.120361328125
F-0.08984375
F0.839599609375
tp939
a(F0.120849609375
F-0.090087890625
F0.83935546875
tp940
a(F0.122314453125
F-0.09228515625
F0.8359375
tp941
a(F0.11572265625
F-0.0986328125
F0.83349609375
tp942
a(F0.115966796875
F-0.095458984375
F0.845947265625
tp943
a(F0.121826171875
F-0.092529296875
F0.844970703125
tp944
a(F0.12158203125
F-0.0986328125
F0.831787109375
tp945
a(F0.119140625
F-0.093994140625
F0.84521484375
tp946
a(F0.120361328125
F-0.094482421875
F0.8388671875
tp947
a(F0.123046875
F-0.094970703125
F0.835205078125
tp948
a(F0.1181640625
F-0.09619140625
F0.842041015625
tp949
a(F0.11572265625
F-0.0888671875
F0.837646484375
tp950
a(F0.119140625
F-0.093505859375
F0.83935546875
tp951
a(F0.114501953125
F-0.094970703125
F0.841796875
tp952
a(F0.1171875
F-0.09814453125
F0.838623046875
tp953
a(F0.116943359375
F-0.08984375
F0.833984375
tp954
a(F0.115234375
F-0.09619140625
F0.842529296875
tp955
a(F0.115966796875
F-0.096923828125
F0.836181640625
tp956
a(F0.114990234375
F-0.089111328125
F0.844970703125
tp957
a(F0.1279296875
F-0.090087890625
F0.83740234375
tp958
a(F0.114990234375
F-0.078125
F0.83984375
tp959
a(F0.1181640625
F-0.099853515625
F0.838134765625
tp960
a(F0.122802734375
F-0.0947265625
F0.8408203125
tp961
a(F0.116455078125
F-0.094970703125
F0.838623046875
tp962
a(F0.118408203125
F-0.09814453125
F0.834716796875
tp963
a(F0.11865234375
F-0.095947265625
F0.84375
tp964
a(F0.12255859375
F-0.097412109375
F0.843994140625
tp965
a(F0.123046875
F-0.0908203125
F0.8447265625
tp966
a(F0.117919921875
F-0.095703125
F0.837646484375
tp967
a(F0.114013671875
F-0.08837890625
F0.84130859375
tp968
a(F0.12060546875
F-0.0908203125
F0.83837890625
tp969
a(F0.119384765625
F-0.0908203125
F0.84814453125
tp970
a(F0.122802734375
F-0.090576171875
F0.841796875
tp971
a(F0.1171875
F-0.098876953125
F0.84521484375
tp972
a(F0.115478515625
F-0.0908203125
F0.83935546875
tp973
a(F0.118896484375
F-0.0908203125
F0.83740234375
tp974
a(F0.1181640625
F-0.0947265625
F0.84033203125
tp975
a(F0.114990234375
F-0.091552734375
F0.84033203125
tp976
a(F0.119873046875
F-0.097900390625
F0.8408203125
tp977
a(F0.119873046875
F-0.090576171875
F0.83447265625
tp978
a(F0.114501953125
F-0.096923828125
F0.8359375
tp979
a(F0.111328125
F-0.089599609375
F0.843017578125
tp980
a(F0.11962890625
F-0.092041015625
F0.842529296875
tp981
a(F0.11376953125
F-0.086181640625
F0.833251953125
tp982
a(F0.12109375
F-0.092041015625
F0.8408203125
tp983
a(F0.116455078125
F-0.099853515625
F0.84033203125
tp984
a(F0.11865234375
F-0.094970703125
F0.837646484375
tp985
a(F0.119384765625
F-0.090087890625
F0.8427734375
tp986
a(F0.115234375
F-0.09765625
F0.834228515625
tp987
a(F0.11767578125
F-0.092041015625
F0.830322265625
tp988
a(F0.11572265625
F-0.0966796875
F0.8447265625
tp989
a(F0.123291015625
F-0.094482421875
F0.837646484375
tp990
a(F0.1171875
F-0.094482421875
F0.840576171875
tp991
a(F0.114501953125
F-0.096923828125
F0.845458984375
tp992
a(F0.11865234375
F-0.099365234375
F0.84033203125
tp993
a(F0.1103515625
F-0.094482421875
F0.848876953125
tp994
a(F0.1142578125
F-0.0947265625
F0.840087890625
tp995
a(F0.118896484375
F-0.08544921875
F0.844482421875
tp996
a(F0.114501953125
F-0.093505859375
F0.846435546875
tp997
a(F0.1162109375
F-0.091796875
F0.8408203125
tp998
a(F0.117919921875
F-0.092529296875
F0.84375
tp999
a(F0.115478515625
F-0.09716796875
F0.833740234375
tp1000
a(F0.11474609375
F-0.090087890625
F0.83544921875
tp1001
a(F0.120361328125
F-0.095703125
F0.837158203125
tp1002
a(F0.122802734375
F-0.093994140625
F0.843017578125
tp1003
a(F0.117431640625
F-0.093505859375
F0.842041015625
tp1004
a(F0.115478515625
F-0.095458984375
F0.842529296875
tp1005
a(F0.11474609375
F-0.093994140625
F0.826171875
tp1006
a(F0.119384765625
F-0.098388671875
F0.836669921875
tp1007
a(F0.119140625
F-0.096435546875
F0.8408203125
tp1008
a(F0.114990234375
F-0.09326171875
F0.83251953125
tp1009
a(F0.1201171875
F-0.096435546875
F0.843505859375
tp1010
a(F0.11865234375
F-0.095458984375
F0.840576171875
tp1011
a(F0.116943359375
F-0.094482421875
F0.841796875
tp1012
a(F0.120849609375
F-0.09619140625
F0.83935546875
tp1013
a(F0.120361328125
F-0.094482421875
F0.8408203125
tp1014
a(F0.121337890625
F-0.093017578125
F0.842529296875
tp1015
a(F0.11669921875
F-0.094970703125
F0.84326171875
tp1016
a(F0.12353515625
F-0.089599609375
F0.83740234375
tp1017
a(F0.11962890625
F-0.0986328125
F0.835693359375
tp1018
a(F0.12646484375
F-0.091064453125
F0.8427734375
tp1019
a(F0.121826171875
F-0.09130859375
F0.832763671875
tp1020
a(F0.11474609375
F-0.08837890625
F0.8408203125
tp1021
a(F0.116455078125
F-0.096435546875
F0.841552734375
tp1022
a(F0.118896484375
F-0.093017578125
F0.83984375
tp1023
a(F0.125
F-0.095947265625
F0.83349609375
tp1024
a(F0.1162109375
F-0.090087890625
F0.838623046875
tp1025
a(F0.123291015625
F-0.09130859375
F0.8466796875
tp1026
a(F0.12060546875
F-0.08837890625
F0.840576171875
tp1027
a(F0.119384765625
F-0.08984375
F0.845703125
tp1028
a(F0.121337890625
F-0.09619140625
F0.837158203125
tp1029
a(F0.12109375
F-0.092041015625
F0.842529296875
tp1030
a(F0.114501953125
F-0.091064453125
F0.83984375
tp1031
a(F0.119140625
F-0.095458984375
F0.840576171875
tp1032
a(F0.11962890625
F-0.099365234375
F0.8359375
tp1033
a(F0.12109375
F-0.093994140625
F0.844970703125
tp1034
a(F0.118408203125
F-0.0927734375
F0.8369140625
tp1035
a(F0.120849609375
F-0.089599609375
F0.845458984375
tp1036
a(F0.11865234375
F-0.093994140625
F0.83447265625
tp1037
a(F0.1220703125
F-0.095458984375
F0.845703125
tp1038
a(F0.1162109375
F-0.095703125
F0.832275390625
tp1039
a(F0.117431640625
F-0.0927734375
F0.843505859375
tp1040
a(F0.115234375
F-0.08984375
F0.84716796875
tp1041
a(F0.1171875
F-0.093505859375
F0.83837890625
tp1042
a(F0.12158203125
F-0.10107421875
F0.83935546875
tp1043
a(F0.11962890625
F-0.100341796875
F0.843994140625
tp1044
a(F0.114990234375
F-0.092529296875
F0.834716796875
tp1045
a(F0.121337890625
F-0.09423828125
F0.843505859375
tp1046
a(F0.115966796875
F-0.091552734375
F0.8359375
tp1047
a(F0.119140625
F-0.09814453125
F0.84814453125
tp1048
a(F0.118896484375
F-0.099609375
F0.84130859375
tp1049
a(F0.124267578125
F-0.09521484375
F0.84033203125
tp1050
a(F0.11572265625
F-0.08935546875
F0.840087890625
tp1051
a(F0.113037109375
F-0.095458984375
F0.8388671875
tp1052
a(F0.117919921875
F-0.08837890625
F0.840576171875
tp1053
a(F0.120849609375
F-0.089599609375
F0.8408203125
tp1054
a(F0.118408203125
F-0.095458984375
F0.8408203125
tp1055
a(F0.11669921875
F-0.092529296875
F0.844970703125
tp1056
a(F0.119384765625
F-0.1005859375
F0.836181640625
tp1057
a(F0.113525390625
F-0.093017578125
F0.837646484375
tp1058
a(F0.123291015625
F-0.098388671875
F0.840576171875
tp1059
a(F0.11962890625
F-0.08935546875
F0.8359375
tp1060
a(F0.1171875
F-0.090087890625
F0.8408203125
tp1061
a(F0.12109375
F-0.100830078125
F0.829833984375
tp1062
a(F0.117431640625
F-0.09033203125
F0.835205078125
tp1063
a(F0.12158203125
F-0.093994140625
F0.8369140625
tp1064
a(F0.119140625
F-0.097412109375
F0.8359375
tp1065
a(F0.121826171875
F-0.078125
F0.8408203125
tp1066
a(F0.119873046875
F-0.08935546875
F0.842529296875
tp1067
a(F0.1181640625
F-0.09326171875
F0.846435546875
tp1068
a(F0.116455078125
F-0.08740234375
F0.8408203125
tp1069
a(F0.120361328125
F-0.0927734375
F0.834716796875
tp1070
a(F0.117919921875
F-0.097412109375
F0.842041015625
tp1071
a(F0.11279296875
F-0.095947265625
F0.84130859375
tp1072
a(F0.113525390625
F-0.094482421875
F0.839599609375
tp1073
a(F0.111328125
F-0.092041015625
F0.8427734375
tp1074
a(F0.112060546875
F-0.095458984375
F0.83251953125
tp1075
a(F0.115234375
F-0.09033203125
F0.842529296875
tp1076
a(F0.118408203125
F-0.0927734375
F0.844482421875
tp1077
a(F0.116943359375
F-0.090087890625
F0.842041015625
tp1078
a(F0.12451171875
F-0.091064453125
F0.838134765625
tp1079
a(F0.120849609375
F-0.09521484375
F0.841064453125
tp1080
a(F0.120361328125
F-0.089599609375
F0.847900390625
tp1081
a(F0.11767578125
F-0.09814453125
F0.838623046875
tp1082
a(F0.115966796875
F-0.093505859375
F0.84033203125
tp1083
a(F0.1162109375
F-0.094970703125
F0.8408203125
tp1084
a(F0.122314453125
F-0.09912109375
F0.843994140625
tp1085
a(F0.114013671875
F-0.09521484375
F0.843017578125
tp1086
a(F0.115478515625
F-0.095458984375
F0.8388671875
tp1087
a(F0.12109375
F-0.088623046875
F0.8427734375
tp1088
a(F0.12060546875
F-0.095703125
F0.835205078125
tp1089
a(F0.121337890625
F-0.091064453125
F0.8359375
tp1090
a(F0.121337890625
F-0.093017578125
F0.83251953125
tp1091
a(F0.115234375
F-0.091064453125
F0.8369140625
tp1092
a(F0.1171875
F-0.091796875
F0.83642578125
tp1093
a(F0.1181640625
F-0.091796875
F0.840087890625
tp1094
a(F0.123291015625
F-0.092041015625
F0.83544921875
tp1095
a(F0.1220703125
F-0.100341796875
F0.831787109375
tp1096
a(F0.11572265625
F-0.099365234375
F0.8408203125
tp1097
a(F0.1171875
F-0.09326171875
F0.835693359375
tp1098
a(F0.119140625
F-0.08935546875
F0.840087890625
tp1099
a(F0.111328125
F-0.096923828125
F0.8427734375
tp1100
a(F0.11572265625
F-0.0908203125
F0.8388671875
tp1101
a(F0.124755859375
F-0.0947265625
F0.838623046875
tp1102
a(F0.1171875
F-0.09326171875
F0.836181640625
tp1103
a(F0.11572265625
F-0.095947265625
F0.84619140625
tp1104
a(F0.11767578125
F-0.089599609375
F0.840576171875
tp1105
a(F0.126220703125
F-0.0966796875
F0.827392578125
tp1106
a(F0.119384765625
F-0.09423828125
F0.837890625
tp1107
a(F0.114990234375
F-0.095703125
F0.8408203125
tp1108
a(F0.116943359375
F-0.09619140625
F0.837158203125
tp1109
a(F0.115966796875
F-0.0947265625
F0.83837890625
tp1110
a(F0.114013671875
F-0.1025390625
F0.84521484375
tp1111
a(F0.12060546875
F-0.08984375
F0.84033203125
tp1112
a(F0.119873046875
F-0.09228515625
F0.839111328125
tp1113
a(F0.11767578125
F-0.085693359375
F0.843505859375
tp1114
a(F0.11376953125
F-0.094482421875
F0.837890625
tp1115
a(F0.119873046875
F-0.078125
F0.838134765625
tp1116
a(F0.112548828125
F-0.096923828125
F0.837646484375
tp1117
a(F0.11767578125
F-0.102783203125
F0.8349609375
tp1118
a(F0.118896484375
F-0.09326171875
F0.8349609375
tp1119
a(F0.122802734375
F-0.093017578125
F0.834716796875
tp1120
a(F0.119140625
F-0.089111328125
F0.843017578125
tp1121
a(F0.1142578125
F-0.096923828125
F0.837158203125
tp1122
a(F0.1142578125
F-0.097900390625
F0.83447265625
tp1123
a(F0.118408203125
F-0.091552734375
F0.841552734375
tp1124
a(F0.119384765625
F-0.085205078125
F0.842529296875
tp1125
a(F0.1220703125
F-0.092529296875
F0.835693359375
tp1126
a(F0.11279296875
F-0.0947265625
F0.8330078125
tp1127
a(F0.12255859375
F-0.0966796875
F0.84423828125
tp1128
a(F0.122802734375
F-0.091064453125
F0.836181640625
tp1129
a(F0.118896484375
F-0.09765625
F0.83984375
tp1130
a(F0.122802734375
F-0.078125
F0.840576171875
tp1131
a(F0.112060546875
F-0.093017578125
F0.842041015625
tp1132
a(F0.11962890625
F-0.092041015625
F0.83935546875
tp1133
a(F0.113525390625
F-0.095947265625
F0.8447265625
tp1134
a(F0.11767578125
F-0.094482421875
F0.836181640625
tp1135
a(F0.119384765625
F-0.0888671875
F0.83251953125
tp1136
a(F0.118408203125
F-0.09521484375
F0.845703125
tp1137
a(F0.114501953125
F-0.091552734375
F0.837158203125
tp1138
a(F0.11279296875
F-0.092529296875
F0.843505859375
tp1139
a(F0.118896484375
F-0.100341796875
F0.839599609375
tp1140
a(F0.129150390625
F-0.09765625
F0.83935546875
tp1141
a(F0.118896484375
F-0.08740234375
F0.83544921875
tp1142
a(F0.11767578125
F-0.08740234375
F0.840087890625
tp1143
a(F0.11767578125
F-0.085693359375
F0.8427734375
tp1144
a(F0.12255859375
F-0.09326171875
F0.834716796875
tp1145
a(F0.1171875
F-0.090087890625
F0.85009765625
tp1146
a(F0.115966796875
F-0.097412109375
F0.834716796875
tp1147
a(F0.11669921875
F-0.098876953125
F0.847412109375
tp1148
a(F0.12548828125
F-0.0927734375
F0.83203125
tp1149
a(F0.1181640625
F-0.078125
F0.842041015625
tp1150
a(F0.117431640625
F-0.091796875
F0.841552734375
tp1151
a(F0.12109375
F-0.095947265625
F0.83740234375
tp1152
a(F0.121826171875
F-0.091552734375
F0.838134765625
tp1153
a(F0.119140625
F-0.087158203125
F0.83544921875
tp1154
a(F0.124755859375
F-0.09716796875
F0.845458984375
tp1155
a(F0.12060546875
F-0.0908203125
F0.8388671875
tp1156
a(F0.12158203125
F-0.095703125
F0.834228515625
tp1157
a(F0.117919921875
F-0.091064453125
F0.84326171875
tp1158
a(F0.1171875
F-0.097900390625
F0.835205078125
tp1159
a(F0.1162109375
F-0.09423828125
F0.83251953125
tp1160
a(F0.116455078125
F-0.093505859375
F0.840087890625
tp1161
a(F0.1181640625
F-0.0947265625
F0.8369140625
tp1162
a(F0.11865234375
F-0.09521484375
F0.83544921875
tp1163
a(F0.120361328125
F-0.078125
F0.8388671875
tp1164
a(F0.120361328125
F-0.0947265625
F0.844482421875
tp1165
a(F0.117431640625
F-0.09326171875
F0.83642578125
tp1166
a(F0.115478515625
F-0.091552734375
F0.839599609375
tp1167
a(F0.119140625
F-0.097412109375
F0.8388671875
tp1168
a(F0.123291015625
F-0.09521484375
F0.839111328125
tp1169
a(F0.1181640625
F-0.097412109375
F0.841796875
tp1170
a(F0.115478515625
F-0.091796875
F0.833251953125
tp1171
a(F0.117431640625
F-0.092529296875
F0.83935546875
tp1172
a(F0.1171875
F-0.08935546875
F0.837890625
tp1173
a(F0.11865234375
F-0.092529296875
F0.841552734375
tp1174
a(F0.116943359375
F-0.091796875
F0.831787109375
tp1175
a(F0.115478515625
F-0.097412109375
F0.838623046875
tp1176
a(F0.12158203125
F-0.08935546875
F0.843994140625
tp1177
a(F0.118408203125
F-0.08837890625
F0.845703125
tp1178
a(F0.117919921875
F-0.0947265625
F0.836181640625
tp1179
a(F0.119384765625
F-0.092529296875
F0.83349609375
tp1180
a(F0.11962890625
F-0.0908203125
F0.84423828125
tp1181
a(F0.115966796875
F-0.097900390625
F0.845947265625
tp1182
a(F0.115966796875
F-0.088623046875
F0.841796875
tp1183
a(F0.1181640625
F-0.0947265625
F0.832275390625
tp1184
a(F0.115966796875
F-0.093017578125
F0.838134765625
tp1185
a(F0.11962890625
F-0.086181640625
F0.83544921875
tp1186
a(F0.1220703125
F-0.08740234375
F0.83935546875
tp1187
a(F0.11865234375
F-0.093017578125
F0.84033203125
tp1188
a(F0.114501953125
F-0.099365234375
F0.8408203125
tp1189
a(F0.1171875
F-0.09423828125
F0.843994140625
tp1190
a(F0.119384765625
F-0.095947265625
F0.83837890625
tp1191
a(F0.113525390625
F-0.092529296875
F0.835205078125
tp1192
a(F0.120849609375
F-0.09130859375
F0.84033203125
tp1193
a(F0.121337890625
F-0.095458984375
F0.833251953125
tp1194
a(F0.113525390625
F-0.092529296875
F0.837646484375
tp1195
a(F0.12158203125
F-0.092041015625
F0.83837890625
tp1196
a(F0.123779296875
F-0.095703125
F0.84228515625
tp1197
a(F0.1171875
F-0.0927734375
F0.843505859375
tp1198
a(F0.118896484375
F-0.09423828125
F0.8369140625
tp1199
a(F0.116455078125
F-0.095703125
F0.832275390625
tp1200
a(F0.114990234375
F-0.095703125
F0.8388671875
tp1201
a(F0.118896484375
F-0.093505859375
F0.84765625
tp1202
a(F0.119140625
F-0.098388671875
F0.837158203125
tp1203
a(F0.113037109375
F-0.09521484375
F0.842041015625
tp1204
a(F0.11865234375
F-0.090087890625
F0.8369140625
tp1205
a(F0.117919921875
F-0.09326171875
F0.83251953125
tp1206
a(F0.122314453125
F-0.09228515625
F0.84130859375
tp1207
a(F0.11767578125
F-0.094482421875
F0.8427734375
tp1208
a(F0.120849609375
F-0.09814453125
F0.831787109375
tp1209
a(F0.1171875
F-0.093505859375
F0.8359375
tp1210
a(F0.119384765625
F-0.09814453125
F0.84326171875
tp1211
a(F0.116455078125
F-0.09130859375
F0.8369140625
tp1212
a(F0.11376953125
F-0.09326171875
F0.83447265625
tp1213
a(F0.115478515625
F-0.091796875
F0.837890625
tp1214
a(F0.12255859375
F-0.096435546875
F0.840576171875
tp1215
a(F0.119873046875
F-0.08935546875
F0.844482421875
tp1216
a(F0.114501953125
F-0.09912109375
F0.83349609375
tp1217
a(F0.114013671875
F-0.097900390625
F0.8330078125
tp1218
a(F0.116455078125
F-0.093505859375
F0.8427734375
tp1219
a(F0.119140625
F-0.10205078125
F0.847900390625
tp1220
a(F0.11474609375
F-0.093017578125
F0.833740234375
tp1221
a(F0.116943359375
F-0.090576171875
F0.835693359375
tp1222
a(F0.1171875
F-0.094482421875
F0.845458984375
tp1223
a(F0.121337890625
F-0.089599609375
F0.836669921875
tp1224
a(F0.110595703125
F-0.08740234375
F0.83984375
tp1225
a(F0.115966796875
F-0.10009765625
F0.834716796875
tp1226
a(F0.116943359375
F-0.078125
F0.83544921875
tp1227
a(F0.120361328125
F-0.100341796875
F0.838623046875
tp1228
a(F0.115478515625
F-0.093994140625
F0.8369140625
tp1229
a(F0.119873046875
F-0.095703125
F0.833251953125
tp1230
a(F0.12060546875
F-0.099365234375
F0.833251953125
tp1231
a(F0.117431640625
F-0.0908203125
F0.8359375
tp1232
a(F0.117919921875
F-0.0947265625
F0.8388671875
tp1233
a(F0.116455078125
F-0.093017578125
F0.838623046875
tp1234
a(F0.118896484375
F-0.096923828125
F0.833251953125
tp1235
a(F0.1162109375
F-0.0908203125
F0.83837890625
tp1236
a(F0.1171875
F-0.10107421875
F0.840087890625
tp1237
a(F0.1162109375
F-0.099365234375
F0.834228515625
tp1238
a(F0.114990234375
F-0.09228515625
F0.833251953125
tp1239
a(F0.12060546875
F-0.09326171875
F0.83642578125
tp1240
a(F0.118408203125
F-0.096923828125
F0.840087890625
tp1241
a(F0.1162109375
F-0.09228515625
F0.83349609375
tp1242
a(F0.114501953125
F-0.095458984375
F0.8388671875
tp1243
a(F0.11865234375
F-0.095703125
F0.839599609375
tp1244
a(F0.119873046875
F-0.09423828125
F0.835205078125
tp1245
a(F0.1171875
F-0.09130859375
F0.83447265625
tp1246
a(F0.119873046875
F-0.0927734375
F0.837890625
tp1247
a(F0.116455078125
F-0.093017578125
F0.838134765625
tp1248
a(F0.11865234375
F-0.09326171875
F0.843017578125
tp1249
a(F0.11865234375
F-0.091552734375
F0.843505859375
tp1250
a(F0.1181640625
F-0.0908203125
F0.841552734375
tp1251
a(F0.120849609375
F-0.091064453125
F0.8369140625
tp1252
a(F0.1142578125
F-0.091064453125
F0.837158203125
tp1253
a(F0.123046875
F-0.091552734375
F0.83544921875
tp1254
a(F0.118896484375
F-0.096435546875
F0.844970703125
tp1255
a(F0.11669921875
F-0.100341796875
F0.84423828125
tp1256
a(F0.11669921875
F-0.090576171875
F0.838623046875
tp1257
a(F0.126953125
F-0.09130859375
F0.8369140625
tp1258
a(F0.12109375
F-0.078125
F0.84375
tp1259
a(F0.112548828125
F-0.1015625
F0.837158203125
tp1260
a(F0.118408203125
F-0.078125
F0.845703125
tp1261
a(F0.118408203125
F-0.089599609375
F0.845458984375
tp1262
a(F0.117919921875
F-0.087890625
F0.843505859375
tp1263
a(F0.1181640625
F-0.091552734375
F0.837890625
tp1264
a(F0.1103515625
F-0.10009765625
F0.83349609375
tp1265
a(F0.11572265625
F-0.092041015625
F0.84326171875
tp1266
a(F0.117919921875
F-0.078125
F0.841552734375
tp1267
a(F0.118408203125
F-0.09326171875
F0.839599609375
tp1268
a(F0.113037109375
F-0.099365234375
F0.839111328125
tp1269
a(F0.1201171875
F-0.0947265625
F0.838134765625
tp1270
a(F0.12060546875
F-0.089111328125
F0.841796875
tp1271
a(F0.117431640625
F-0.09716796875
F0.83984375
tp1272
a(F0.120361328125
F-0.092529296875
F0.84326171875
tp1273
a(F0.117919921875
F-0.099853515625
F0.83154296875
tp1274
a(F0.12255859375
F-0.091796875
F0.837890625
tp1275
a(F0.12060546875
F-0.095458984375
F0.837158203125
tp1276
a(F0.11279296875
F-0.092041015625
F0.846435546875
tp1277
a(F0.12109375
F-0.09521484375
F0.833251953125
tp1278
a(F0.114013671875
F-0.093017578125
F0.842529296875
tp1279
a(F0.114501953125
F-0.09521484375
F0.843017578125
tp1280
a(F0.11865234375
F-0.095947265625
F0.836669921875
tp1281
a(F0.118408203125
F-0.09521484375
F0.83544921875
tp1282
a(F0.119384765625
F-0.091796875
F0.84130859375
tp1283
a(F0.11279296875
F-0.09423828125
F0.834228515625
tp1284
a(F0.117919921875
F-0.093505859375
F0.841064453125
tp1285
a(F0.122314453125
F-0.093505859375
F0.840576171875
tp1286
a(F0.118896484375
F-0.098876953125
F0.838134765625
tp1287
a(F0.12255859375
F-0.08837890625
F0.83740234375
tp1288
a(F0.11865234375
F-0.092529296875
F0.83740234375
tp1289
a(F0.115234375
F-0.08984375
F0.835205078125
tp1290
a(F0.1162109375
F-0.095947265625
F0.8408203125
tp1291
a(F0.11376953125
F-0.095458984375
F0.837646484375
tp1292
a(F0.1240234375
F-0.094482421875
F0.843994140625
tp1293
a(F0.1220703125
F-0.096435546875
F0.83837890625
tp1294
a(F0.113037109375
F-0.091064453125
F0.84130859375
tp1295
a(F0.119873046875
F-0.093017578125
F0.846435546875
tp1296
a(F0.11572265625
F-0.091552734375
F0.842041015625
tp1297
a(F0.11474609375
F-0.09619140625
F0.83349609375
tp1298
a(F0.1201171875
F-0.0927734375
F0.839599609375
tp1299
a(F0.10986328125
F-0.092529296875
F0.83544921875
tp1300
a(F0.10888671875
F-0.0908203125
F0.83642578125
tp1301
a(F0.119384765625
F-0.095458984375
F0.8427734375
tp1302
a(F0.114990234375
F-0.095947265625
F0.84130859375
tp1303
a(F0.123779296875
F-0.0947265625
F0.843994140625
tp1304
a(F0.115966796875
F-0.085693359375
F0.83740234375
tp1305
a(F0.1123046875
F-0.097412109375
F0.834716796875
tp1306
a(F0.114501953125
F-0.097412109375
F0.83203125
tp1307
a(F0.122314453125
F-0.092041015625
F0.84033203125
tp1308
a(F0.112060546875
F-0.093994140625
F0.8408203125
tp1309
a(F0.12158203125
F-0.09619140625
F0.843505859375
tp1310
a(F0.12353515625
F-0.08935546875
F0.8310546875
tp1311
a(F0.11865234375
F-0.09326171875
F0.847900390625
tp1312
a(F0.117919921875
F-0.092529296875
F0.840087890625
tp1313
a(F0.118896484375
F-0.094482421875
F0.841552734375
tp1314
a(F0.11181640625
F-0.091552734375
F0.841552734375
tp1315
a(F0.119873046875
F-0.08935546875
F0.839599609375
tp1316
a(F0.114501953125
F-0.097412109375
F0.839599609375
tp1317
a(F0.111328125
F-0.098388671875
F0.84326171875
tp1318
a(F0.114013671875
F-0.092041015625
F0.840087890625
tp1319
a(F0.119384765625
F-0.093994140625
F0.843505859375
tp1320
a(F0.120361328125
F-0.095458984375
F0.847900390625
tp1321
a(F0.1181640625
F-0.099365234375
F0.843017578125
tp1322
a(F0.123046875
F-0.09326171875
F0.840087890625
tp1323
a(F0.115966796875
F-0.08935546875
F0.841064453125
tp1324
a(F0.1201171875
F-0.099853515625
F0.839599609375
tp1325
a(F0.117431640625
F-0.08642578125
F0.837890625
tp1326
a(F0.121337890625
F-0.091064453125
F0.840087890625
tp1327
a(F0.11376953125
F-0.097412109375
F0.83740234375
tp1328
a(F0.12353515625
F-0.09619140625
F0.832275390625
tp1329
a(F0.11962890625
F-0.09619140625
F0.839111328125
tp1330
a(F0.115234375
F-0.092041015625
F0.8447265625
tp1331
a(F0.12109375
F-0.09521484375
F0.842529296875
tp1332
a(F0.121826171875
F-0.091552734375
F0.8369140625
tp1333
a(F0.11572265625
F-0.097412109375
F0.8447265625
tp1334
a(F0.119873046875
F-0.0888671875
F0.83740234375
tp1335
a(F0.114501953125
F-0.09521484375
F0.8427734375
tp1336
a(F0.11328125
F-0.094482421875
F0.83642578125
tp1337
a(F0.118896484375
F-0.08642578125
F0.84375
tp1338
a(F0.121826171875
F-0.0908203125
F0.841552734375
tp1339
a(F0.119873046875
F-0.092041015625
F0.8408203125
tp1340
a(F0.12109375
F-0.09033203125
F0.834716796875
tp1341
a(F0.11767578125
F-0.10009765625
F0.830322265625
tp1342
a(F0.11279296875
F-0.0927734375
F0.84326171875
tp1343
a(F0.118896484375
F-0.094970703125
F0.844482421875
tp1344
a(F0.122802734375
F-0.09619140625
F0.834228515625
tp1345
a(F0.11865234375
F-0.096923828125
F0.837158203125
tp1346
a(F0.11376953125
F-0.09521484375
F0.834228515625
tp1347
a(F0.1201171875
F-0.09326171875
F0.842041015625
tp1348
a(F0.11767578125
F-0.096435546875
F0.83642578125
tp1349
a(F0.1220703125
F-0.078125
F0.8359375
tp1350
a(F0.11962890625
F-0.093505859375
F0.837158203125
tp1351
a(F0.118896484375
F-0.09716796875
F0.8369140625
tp1352
a(F0.115478515625
F-0.093017578125
F0.835693359375
tp1353
a(F0.123779296875
F-0.094482421875
F0.828369140625
tp1354
a(F0.1171875
F-0.078125
F0.84423828125
tp1355
a(F0.12353515625
F-0.097412109375
F0.83984375
tp1356
a(F0.12255859375
F-0.095703125
F0.836181640625
tp1357
a(F0.12060546875
F-0.09521484375
F0.838134765625
tp1358
a(F0.11669921875
F-0.098388671875
F0.84619140625
tp1359
a(F0.113037109375
F-0.088623046875
F0.842529296875
tp1360
a(F0.118408203125
F-0.09619140625
F0.8388671875
tp1361
a(F0.1201171875
F-0.0927734375
F0.832275390625
tp1362
a(F0.12255859375
F-0.0927734375
F0.83837890625
tp1363
a(F0.11865234375
F-0.092529296875
F0.84033203125
tp1364
a(F0.115966796875
F-0.089111328125
F0.8369140625
tp1365
a(F0.118408203125
F-0.086181640625
F0.8291015625
tp1366
a(F0.1181640625
F-0.094482421875
F0.8466796875
tp1367
a(F0.1201171875
F-0.091796875
F0.83447265625
tp1368
a(F0.121826171875
F-0.096923828125
F0.837158203125
tp1369
asS'time'
p1370
(lp1371
F0.018064975738525391
aF0.035938024520874023
aF0.053622961044311523
aF0.071223020553588867
aF0.088835000991821289
aF0.10644102096557617
aF0.12421894073486328
aF0.14512991905212402
aF0.16291093826293945
aF0.1806790828704834
aF0.19835090637207031
aF0.21598505973815918
aF0.23355698585510254
aF0.25120210647583008
aF0.26877212524414062
aF0.28636407852172852
aF0.30284905433654785
aF0.32055807113647461
aF0.34197306632995605
aF0.36375212669372559
aF0.38567304611206055
aF0.40725111961364746
aF0.42960810661315918
aF0.4510190486907959
aF0.47281789779663086
aF0.49442696571350098
aF0.51604604721069336
aF0.53751397132873535
aF0.56359696388244629
aF0.58710408210754395
aF0.61363101005554199
aF0.6354830265045166
aF0.65685200691223145
aF0.67869997024536133
aF0.70037293434143066
aF0.72191905975341797
aF0.74410700798034668
aF0.76580905914306641
aF0.7873070240020752
aF0.80941390991210938
aF0.83112812042236328
aF0.85277009010314941
aF0.8742821216583252
aF0.896820068359375
aF0.91883301734924316
aF0.94040393829345703
aF0.9621880054473877
aF0.98381590843200684
aF1.0059130191802979
aF1.0278279781341553
aF1.0500459671020508
aF1.0720078945159912
aF1.0935420989990234
aF1.1152329444885254
aF1.1371679306030273
aF1.1587810516357422
aF1.1806321144104004
aF1.2022900581359863
aF1.2239580154418945
aF1.2458479404449463
aF1.2676079273223877
aF1.289215087890625
aF1.3103830814361572
aF1.3323650360107422
aF1.3552911281585693
aF1.3768990039825439
aF1.4002389907836914
aF1.4227919578552246
aF1.4446249008178711
aF1.4665780067443848
aF1.4884719848632812
aF1.5100479125976562
aF1.5318920612335205
aF1.5536720752716064
aF1.5755538940429688
aF1.5974359512329102
aF1.619189977645874
aF1.6407790184020996
aF1.6625950336456299
aF1.6841979026794434
aF1.7058839797973633
aF1.7275419235229492
aF1.757396936416626
aF1.7803399562835693
aF1.80753493309021
aF1.8294620513916016
aF1.8513350486755371
aF1.8729541301727295
aF1.8953070640563965
aF1.9169878959655762
aF1.9387269020080566
aF1.9603300094604492
aF1.9822180271148682
aF2.004127025604248
aF2.0258369445800781
aF2.0474541187286377
aF2.0692570209503174
aF2.0907590389251709
aF2.1125750541687012
aF2.1342129707336426
aF2.1563889980316162
aF2.1786119937896729
aF2.2004101276397705
aF2.2220900058746338
aF2.2437150478363037
aF2.2659649848937988
aF2.2875850200653076
aF2.3088459968566895
aF2.3308191299438477
aF2.352431058883667
aF2.3739869594573975
aF2.3956549167633057
aF2.417335033416748
aF2.4392490386962891
aF2.4609739780426025
aF2.4828450679779053
aF2.5044651031494141
aF2.5259490013122559
aF2.5523679256439209
aF2.5757648944854736
aF2.598628044128418
aF2.6209890842437744
aF2.6427979469299316
aF2.6646831035614014
aF2.6863260269165039
aF2.7079620361328125
aF2.7298369407653809
aF2.7517499923706055
aF2.7735769748687744
aF2.7951490879058838
aF2.8186919689178467
aF2.8403489589691162
aF2.8623449802398682
aF2.8839700222015381
aF2.9061760902404785
aF2.9280381202697754
aF2.9572579860687256
aF2.9801421165466309
aF3.0016419887542725
aF3.0244960784912109
aF3.0466599464416504
aF3.0683140754699707
aF3.0898890495300293
aF3.1116199493408203
aF3.1331191062927246
aF3.1546111106872559
aF3.1759779453277588
aF3.19740891456604
aF3.2189629077911377
aF3.2405660152435303
aF3.2619240283966064
aF3.2833480834960938
aF3.3068571090698242
aF3.3287680149078369
aF3.3505339622497559
aF3.3720300197601318
aF3.3935279846191406
aF3.4153909683227539
aF3.4374001026153564
aF3.4591350555419922
aF3.4807429313659668
aF3.5023939609527588
aF3.5240409374237061
aF3.5457940101623535
aF3.5674779415130615
aF3.5889921188354492
aF3.6105530261993408
aF3.6322250366210938
aF3.654015064239502
aF3.6757609844207764
aF3.6975560188293457
aF3.7192020416259766
aF3.7412381172180176
aF3.7633559703826904
aF3.7865240573883057
aF3.8136770725250244
aF3.8359470367431641
aF3.8577260971069336
aF3.879331111907959
aF3.9012830257415771
aF3.9229481220245361
aF3.9449799060821533
aF3.9668419361114502
aF3.9890890121459961
aF4.0106580257415771
aF4.0321109294891357
aF4.0538699626922607
aF4.0754430294036865
aF4.0976879596710205
aF4.119312047958374
aF4.1409330368041992
aF4.1618649959564209
aF4.1847610473632812
aF4.2066159248352051
aF4.2294859886169434
aF4.2510619163513184
aF4.2733619213104248
aF4.2951340675354004
aF4.3167619705200195
aF4.3386850357055664
aF4.3604960441589355
aF4.3884830474853516
aF4.4124369621276855
aF4.4357800483703613
aF4.4596431255340576
aF4.4848361015319824
aF4.5080220699310303
aF4.5320749282836914
aF4.5540540218353271
aF4.5783400535583496
aF4.6018929481506348
aF4.6235699653625488
aF4.6450369358062744
aF4.667046070098877
aF4.6884269714355469
aF4.7099659442901611
aF4.731497049331665
aF4.7536740303039551
aF4.7752830982208252
aF4.7970259189605713
aF4.8177049160003662
aF4.8395819664001465
aF4.8613700866699219
aF4.8833560943603516
aF4.905925989151001
aF4.9276430606842041
aF4.9495201110839844
aF4.9808750152587891
aF5.0037300586700439
aF5.0261070728302002
aF5.047774076461792
aF5.0694220066070557
aF5.0908489227294922
aF5.1125099658966064
aF5.134303092956543
aF5.1561610698699951
aF5.1779041290283203
aF5.1996560096740723
aF5.2212131023406982
aF5.242919921875
aF5.2643709182739258
aF5.28643798828125
aF5.3099410533905029
aF5.3322169780731201
aF5.3540279865264893
aF5.3807051181793213
aF5.4058659076690674
aF5.4285180568695068
aF5.4501779079437256
aF5.4717509746551514
aF5.493710994720459
aF5.5158140659332275
aF5.5374031066894531
aF5.5588569641113281
aF5.5804591178894043
aF5.6017420291900635
aF5.6232879161834717
aF5.6449921131134033
aF5.6664979457855225
aF5.6879920959472656
aF5.7099239826202393
aF5.7321529388427734
aF5.7540409564971924
aF5.7747459411621094
aF5.7966890335083008
aF5.8184471130371094
aF5.8403189182281494
aF5.861814022064209
aF5.8846240043640137
aF5.9052340984344482
aF5.9277160167694092
aF5.949146032333374
aF5.9708480834960938
aF5.9924559593200684
aF6.0139849185943604
aF6.0359029769897461
aF6.0576069355010986
aF6.0796239376068115
aF6.101625919342041
aF6.1235039234161377
aF6.1453230381011963
aF6.1678988933563232
aF6.1908609867095947
aF6.2126610279083252
aF6.2349340915679932
aF6.2564101219177246
aF6.27836012840271
aF6.2997090816497803
aF6.3214061260223389
aF6.3433470726013184
aF6.3651089668273926
aF6.3869860172271729
aF6.4086740016937256
aF6.4302330017089844
aF6.4518589973449707
aF6.4731819629669189
aF6.4961519241333008
aF6.5180130004882812
aF6.5394949913024902
aF6.5652029514312744
aF6.5885729789733887
aF6.6148860454559326
aF6.63767409324646
aF6.6591310501098633
aF6.6806800365447998
aF6.702301025390625
aF6.7238860130310059
aF6.7459409236907959
aF6.7689669132232666
aF6.7914719581604004
aF6.8144869804382324
aF6.8363571166992188
aF6.8579308986663818
aF6.880885124206543
aF6.9033379554748535
aF6.92684006690979
aF6.9484560489654541
aF6.9704790115356445
aF6.9920699596405029
aF7.0140631198883057
aF7.0362789630889893
aF7.0581400394439697
aF7.080298900604248
aF7.1018579006195068
aF7.1233539581298828
aF7.1450231075286865
aF7.1670560836791992
aF7.1890790462493896
aF7.2109789848327637
aF7.2327139377593994
aF7.254133939743042
aF7.2758519649505615
aF7.2973840236663818
aF7.320930004119873
aF7.3427639007568359
aF7.369697093963623
aF7.3927969932556152
aF7.4160211086273193
aF7.4388229846954346
aF7.4607701301574707
aF7.482590913772583
aF7.5046319961547852
aF7.5262811183929443
aF7.5477371215820312
aF7.5692479610443115
aF7.5908129215240479
aF7.6122210025787354
aF7.6339700222015381
aF7.6555290222167969
aF7.6771059036254883
aF7.6991090774536133
aF7.721005916595459
aF7.7427220344543457
aF7.7681970596313477
aF7.7896671295166016
aF7.8178091049194336
aF7.8408150672912598
aF7.8627350330352783
aF7.8845410346984863
aF7.9050600528717041
aF7.92690110206604
aF7.9489829540252686
aF7.9706099033355713
aF7.9923269748687744
aF8.0139780044555664
aF8.035452127456665
aF8.0571439266204834
aF8.0791571140289307
aF8.1005599498748779
aF8.1222279071807861
aF8.1437919139862061
aF8.1654460430145264
aF8.1873199939727783
aF8.2088329792022705
aF8.2304840087890625
aF8.2525560855865479
aF8.27394700050354
aF8.2956099510192871
aF8.3190770149230957
aF8.3408939838409424
aF8.3626360893249512
aF8.3844659328460693
aF8.4062659740447998
aF8.4282760620117188
aF8.4501659870147705
aF8.4717419147491455
aF8.4933431148529053
aF8.5150101184844971
aF8.5370171070098877
aF8.5588009357452393
aF8.5862739086151123
aF8.6124789714813232
aF8.6353309154510498
aF8.6568429470062256
aF8.6785271167755127
aF8.7001640796661377
aF8.7218809127807617
aF8.7438421249389648
aF8.7654130458831787
aF8.7883269786834717
aF8.8100020885467529
aF8.833611011505127
aF8.8553531169891357
aF8.877885103225708
aF8.8994441032409668
aF8.9222550392150879
aF8.94392991065979
aF8.9706449508666992
aF8.9939861297607422
aF9.0194730758666992
aF9.042125940322876
aF9.0640690326690674
aF9.086482048034668
aF9.1082890033721924
aF9.129817008972168
aF9.1513180732727051
aF9.1728410720825195
aF9.194490909576416
aF9.2165329456329346
aF9.2383260726928711
aF9.2600350379943848
aF9.2815659046173096
aF9.3031680583953857
aF9.3244600296020508
aF9.3462109565734863
aF9.3742170333862305
aF9.3962719440460205
aF9.4201829433441162
aF9.4435460567474365
aF9.4674079418182373
aF9.4914970397949219
aF9.5138809680938721
aF9.5378010272979736
aF9.5596990585327148
aF9.5814731121063232
aF9.6048979759216309
aF9.6270101070404053
aF9.6488499641418457
aF9.6703970432281494
aF9.6919131278991699
aF9.7138259410858154
aF9.7357289791107178
aF9.7578010559082031
aF9.7848749160766602
aF9.8078920841217041
aF9.8363049030303955
aF9.8583440780639648
aF9.8802649974822998
aF9.9031190872192383
aF9.9252419471740723
aF9.946876049041748
aF9.968533992767334
aF9.9901421070098877
aF10.011912107467651
as.